Archive member included to satisfy reference by file (symbol)

/home/jam/dev/ultimate/saltynx/arc_mod_installer/../libnx_min/nx//lib/libnx_min.a(switch_crt0.o)
                              (_start)
/home/jam/dev/ultimate/saltynx/arc_mod_installer/../libnx_min/nx//lib/libnx_min.a(dynamic.o)
                              /home/jam/dev/ultimate/saltynx/arc_mod_installer/../libnx_min/nx//lib/libnx_min.a(switch_crt0.o) (__nx_dynamic)
/home/jam/dev/ultimate/saltynx/arc_mod_installer/../libnx_min/nx//lib/libnx_min.a(init.o)
                              /home/jam/dev/ultimate/saltynx/arc_mod_installer/../libnx_min/nx//lib/libnx_min.a(switch_crt0.o) (__stack_top)
/home/jam/dev/ultimate/saltynx/arc_mod_installer/../libnx_min/nx//lib/libnx_min.a(env.o)
                              /home/jam/dev/ultimate/saltynx/arc_mod_installer/../libnx_min/nx//lib/libnx_min.a(init.o) (envSetup)
/home/jam/dev/ultimate/saltynx/arc_mod_installer/../libnx_min/nx//lib/libnx_min.a(newlib.o)
                              /home/jam/dev/ultimate/saltynx/arc_mod_installer/../libnx_min/nx//lib/libnx_min.a(init.o) (__libnx_init_time)
/home/jam/dev/ultimate/saltynx/arc_mod_installer/../libnx_min/nx//lib/libnx_min.a(argv.o)
                              /home/jam/dev/ultimate/saltynx/arc_mod_installer/../libnx_min/nx//lib/libnx_min.a(init.o) (argvSetup)
/home/jam/dev/ultimate/saltynx/arc_mod_installer/../libnx_min/nx//lib/libnx_min.a(fs_dev.o)
                              /home/jam/dev/ultimate/saltynx/arc_mod_installer/../libnx_min/nx//lib/libnx_min.a(init.o) (fsdevMountSdmc)
/home/jam/dev/ultimate/saltynx/arc_mod_installer/../libnx_min/nx//lib/libnx_min.a(decode_utf8.o)
                              /home/jam/dev/ultimate/saltynx/arc_mod_installer/../libnx_min/nx//lib/libnx_min.a(fs_dev.o) (decode_utf8)
/home/jam/dev/ultimate/saltynx/arc_mod_installer/../libnx_min/nx//lib/libnx_min.a(svc.o)
                              /home/jam/dev/ultimate/saltynx/arc_mod_installer/../libnx_min/nx//lib/libnx_min.a(init.o) (svcSetHeapSize)
/home/jam/dev/ultimate/saltynx/arc_mod_installer/../libnx_min/nx//lib/libnx_min.a(exception.o)
                              /home/jam/dev/ultimate/saltynx/arc_mod_installer/../libnx_min/nx//lib/libnx_min.a(switch_crt0.o) (__libnx_exception_entry)
/home/jam/dev/ultimate/saltynx/arc_mod_installer/../libnx_min/nx//lib/libnx_min.a(readtp.o)
                              /home/jam/dev/ultimate/saltynx/arc_mod_installer/../libnx_min/nx//lib/libnx_min.a(fs_dev.o) (__aarch64_read_tp)
/home/jam/dev/ultimate/saltynx/arc_mod_installer/../libnx_min/nx//lib/libnx_min.a(mutex.o)
                              /home/jam/dev/ultimate/saltynx/arc_mod_installer/../libnx_min/nx//lib/libnx_min.a(newlib.o) (mutexLock)
/home/jam/dev/ultimate/saltynx/arc_mod_installer/../libnx_min/nx//lib/libnx_min.a(virtmem.o)
                              /home/jam/dev/ultimate/saltynx/arc_mod_installer/../libnx_min/nx//lib/libnx_min.a(init.o) (virtmemSetup)
/home/jam/dev/ultimate/saltynx/arc_mod_installer/../libnx_min/nx//lib/libnx_min.a(condvar.o)
                              /home/jam/dev/ultimate/saltynx/arc_mod_installer/../libnx_min/nx//lib/libnx_min.a(newlib.o) (condvarWaitTimeout)
/home/jam/dev/ultimate/saltynx/arc_mod_installer/../libnx_min/nx//lib/libnx_min.a(thread.o)
                              /home/jam/dev/ultimate/saltynx/arc_mod_installer/../libnx_min/nx//lib/libnx_min.a(newlib.o) (threadCreate)
/home/jam/dev/ultimate/saltynx/arc_mod_installer/../libnx_min/nx//lib/libnx_min.a(applet.o)
                              /home/jam/dev/ultimate/saltynx/arc_mod_installer/../libnx_min/nx//lib/libnx_min.a(init.o) (appletExit)
/home/jam/dev/ultimate/saltynx/arc_mod_installer/../libnx_min/nx//lib/libnx_min.a(time.o)
                              /home/jam/dev/ultimate/saltynx/arc_mod_installer/../libnx_min/nx//lib/libnx_min.a(init.o) (timeExit)
/home/jam/dev/ultimate/saltynx/arc_mod_installer/../libnx_min/nx//lib/libnx_min.a(hid.o)
                              /home/jam/dev/ultimate/saltynx/arc_mod_installer/../libnx_min/nx//lib/libnx_min.a(init.o) (hidExit)
/home/jam/dev/ultimate/saltynx/arc_mod_installer/../libnx_min/nx//lib/libnx_min.a(sm.o)
                              /home/jam/dev/ultimate/saltynx/arc_mod_installer/../libnx_min/nx//lib/libnx_min.a(env.o) (smAddOverrideHandle)
/home/jam/dev/ultimate/saltynx/arc_mod_installer/../libnx_min/nx//lib/libnx_min.a(apm.o)
                              /home/jam/dev/ultimate/saltynx/arc_mod_installer/../libnx_min/nx//lib/libnx_min.a(applet.o) (apmExit)
/home/jam/dev/ultimate/saltynx/arc_mod_installer/../libnx_min/nx//lib/libnx_min.a(fatal.o)
                              /home/jam/dev/ultimate/saltynx/arc_mod_installer/../libnx_min/nx//lib/libnx_min.a(dynamic.o) (fatalSimple)
/home/jam/dev/ultimate/saltynx/arc_mod_installer/../libnx_min/nx//lib/libnx_min.a(set.o)
                              /home/jam/dev/ultimate/saltynx/arc_mod_installer/../libnx_min/nx//lib/libnx_min.a(init.o) (setsysInitialize)
/home/jam/dev/ultimate/saltynx/arc_mod_installer/../libnx_min/nx//lib/libnx_min.a(fs.o)
                              /home/jam/dev/ultimate/saltynx/arc_mod_installer/../libnx_min/nx//lib/libnx_min.a(init.o) (fsInitialize)
/home/jam/dev/ultimate/saltynx/arc_mod_installer/../libnx_min/nx//lib/libnx_min.a(hosversion.o)
                              /home/jam/dev/ultimate/saltynx/arc_mod_installer/../libnx_min/nx//lib/libnx_min.a(applet.o) (hosversionGet)
/home/jam/dev/ultimate/saltynx/arc_mod_installer/../libnx_min/nx//lib/libnx_min.a(detect.o)
                              /home/jam/dev/ultimate/saltynx/arc_mod_installer/../libnx_min/nx//lib/libnx_min.a(fatal.o) (detectKernelVersion)
/home/jam/dev/ultimate/saltynx/arc_mod_installer/../libnx_min/nx//lib/libnx_min.a(shmem.o)
                              /home/jam/dev/ultimate/saltynx/arc_mod_installer/../libnx_min/nx//lib/libnx_min.a(hid.o) (shmemLoadRemote)
/home/jam/dev/ultimate/saltynx/arc_mod_installer/../libnx_min/nx//lib/libnx_min.a(wait.o)
                              /home/jam/dev/ultimate/saltynx/arc_mod_installer/../libnx_min/nx//lib/libnx_min.a(applet.o) (waitObjects)
/home/jam/dev/ultimate/saltynx/arc_mod_installer/../libnx_min/nx//lib/libnx_min.a(rwlock.o)
                              /home/jam/dev/ultimate/saltynx/arc_mod_installer/../libnx_min/nx//lib/libnx_min.a(hid.o) (rwlockReadLock)
/home/jam/dev/ultimate/saltynx/arc_mod_installer/../libnx_min/nx//lib/libnx_min.a(tmem.o)
                              /home/jam/dev/ultimate/saltynx/arc_mod_installer/../libnx_min/nx//lib/libnx_min.a(applet.o) (tmemCreate)
/home/jam/dev/ultimate/saltynx/arc_mod_installer/../libnx_min/nx//lib/libnx_min.a(event.o)
                              /home/jam/dev/ultimate/saltynx/arc_mod_installer/../libnx_min/nx//lib/libnx_min.a(applet.o) (eventLoadRemote)
/opt/devkitpro/devkitA64/lib/gcc/aarch64-none-elf/8.3.0/../../../../aarch64-none-elf/lib/pic/libg.a(lib_a-bsearch.o)
                              /home/jam/dev/ultimate/saltynx/arc_mod_installer/../libnx_min/nx//lib/libnx_min.a(fs_dev.o) (bsearch)
/opt/devkitpro/devkitA64/lib/gcc/aarch64-none-elf/8.3.0/../../../../aarch64-none-elf/lib/pic/libg.a(lib_a-ctype_.o)
                              /home/jam/dev/ultimate/saltynx/arc_mod_installer/../libnx_min/nx//lib/libnx_min.a(argv.o) (_ctype_)
/opt/devkitpro/devkitA64/lib/gcc/aarch64-none-elf/8.3.0/../../../../aarch64-none-elf/lib/pic/libg.a(lib_a-errno.o)
                              /home/jam/dev/ultimate/saltynx/arc_mod_installer/../libnx_min/nx//lib/libnx_min.a(newlib.o) (__errno)
/opt/devkitpro/devkitA64/lib/gcc/aarch64-none-elf/8.3.0/../../../../aarch64-none-elf/lib/pic/libg.a(lib_a-exit.o)
                              /home/jam/dev/ultimate/saltynx/arc_mod_installer/../libnx_min/nx//lib/libnx_min.a(switch_crt0.o) (exit)
/opt/devkitpro/devkitA64/lib/gcc/aarch64-none-elf/8.3.0/../../../../aarch64-none-elf/lib/pic/libg.a(lib_a-fini.o)
                              main.o (__libc_fini_array)
/opt/devkitpro/devkitA64/lib/gcc/aarch64-none-elf/8.3.0/../../../../aarch64-none-elf/lib/pic/libg.a(lib_a-impure.o)
                              /opt/devkitpro/devkitA64/lib/gcc/aarch64-none-elf/8.3.0/../../../../aarch64-none-elf/lib/pic/libg.a(lib_a-exit.o) (_global_impure_ptr)
/opt/devkitpro/devkitA64/lib/gcc/aarch64-none-elf/8.3.0/../../../../aarch64-none-elf/lib/pic/libg.a(lib_a-init.o)
                              main.o (__libc_init_array)
/opt/devkitpro/devkitA64/lib/gcc/aarch64-none-elf/8.3.0/../../../../aarch64-none-elf/lib/pic/libg.a(lib_a-malign.o)
                              /home/jam/dev/ultimate/saltynx/arc_mod_installer/../libnx_min/nx//lib/libnx_min.a(thread.o) (memalign)
/opt/devkitpro/devkitA64/lib/gcc/aarch64-none-elf/8.3.0/../../../../aarch64-none-elf/lib/pic/libg.a(lib_a-malignr.o)
                              /opt/devkitpro/devkitA64/lib/gcc/aarch64-none-elf/8.3.0/../../../../aarch64-none-elf/lib/pic/libg.a(lib_a-malign.o) (_memalign_r)
/opt/devkitpro/devkitA64/lib/gcc/aarch64-none-elf/8.3.0/../../../../aarch64-none-elf/lib/pic/libg.a(lib_a-malloc.o)
                              main.o (malloc)
/opt/devkitpro/devkitA64/lib/gcc/aarch64-none-elf/8.3.0/../../../../aarch64-none-elf/lib/pic/libg.a(lib_a-mallocr.o)
                              /opt/devkitpro/devkitA64/lib/gcc/aarch64-none-elf/8.3.0/../../../../aarch64-none-elf/lib/pic/libg.a(lib_a-malignr.o) (_malloc_r)
/opt/devkitpro/devkitA64/lib/gcc/aarch64-none-elf/8.3.0/../../../../aarch64-none-elf/lib/pic/libg.a(lib_a-memcpy.o)
                              /home/jam/dev/ultimate/saltynx/arc_mod_installer/../libnx_min/nx//lib/libnx_min.a(newlib.o) (memcpy)
/opt/devkitpro/devkitA64/lib/gcc/aarch64-none-elf/8.3.0/../../../../aarch64-none-elf/lib/pic/libg.a(lib_a-memset.o)
                              /home/jam/dev/ultimate/saltynx/arc_mod_installer/../libnx_min/nx//lib/libnx_min.a(argv.o) (memset)
/opt/devkitpro/devkitA64/lib/gcc/aarch64-none-elf/8.3.0/../../../../aarch64-none-elf/lib/pic/libg.a(lib_a-mlock.o)
                              /opt/devkitpro/devkitA64/lib/gcc/aarch64-none-elf/8.3.0/../../../../aarch64-none-elf/lib/pic/libg.a(lib_a-malignr.o) (__malloc_lock)
/opt/devkitpro/devkitA64/lib/gcc/aarch64-none-elf/8.3.0/../../../../aarch64-none-elf/lib/pic/libg.a(lib_a-setenv.o)
                              /home/jam/dev/ultimate/saltynx/arc_mod_installer/../libnx_min/nx//lib/libnx_min.a(newlib.o) (setenv)
/opt/devkitpro/devkitA64/lib/gcc/aarch64-none-elf/8.3.0/../../../../aarch64-none-elf/lib/pic/libg.a(lib_a-setenv_r.o)
                              /opt/devkitpro/devkitA64/lib/gcc/aarch64-none-elf/8.3.0/../../../../aarch64-none-elf/lib/pic/libg.a(lib_a-setenv.o) (_setenv_r)
/opt/devkitpro/devkitA64/lib/gcc/aarch64-none-elf/8.3.0/../../../../aarch64-none-elf/lib/pic/libg.a(lib_a-snprintf.o)
                              main.o (snprintf)
/opt/devkitpro/devkitA64/lib/gcc/aarch64-none-elf/8.3.0/../../../../aarch64-none-elf/lib/pic/libg.a(lib_a-strchr.o)
                              /opt/devkitpro/devkitA64/lib/gcc/aarch64-none-elf/8.3.0/../../../../aarch64-none-elf/lib/pic/libg.a(lib_a-setenv_r.o) (strchr)
/opt/devkitpro/devkitA64/lib/gcc/aarch64-none-elf/8.3.0/../../../../aarch64-none-elf/lib/pic/libg.a(lib_a-strcpy.o)
                              /home/jam/dev/ultimate/saltynx/arc_mod_installer/../libnx_min/nx//lib/libnx_min.a(env.o) (strcpy)
/opt/devkitpro/devkitA64/lib/gcc/aarch64-none-elf/8.3.0/../../../../aarch64-none-elf/lib/pic/libg.a(lib_a-strlen.o)
                              /home/jam/dev/ultimate/saltynx/arc_mod_installer/../libnx_min/nx//lib/libnx_min.a(newlib.o) (strlen)
/opt/devkitpro/devkitA64/lib/gcc/aarch64-none-elf/8.3.0/../../../../aarch64-none-elf/lib/pic/libg.a(lib_a-strncat.o)
                              /home/jam/dev/ultimate/saltynx/arc_mod_installer/../libnx_min/nx//lib/libnx_min.a(fs_dev.o) (strncat)
/opt/devkitpro/devkitA64/lib/gcc/aarch64-none-elf/8.3.0/../../../../aarch64-none-elf/lib/pic/libg.a(lib_a-strncmp.o)
                              /home/jam/dev/ultimate/saltynx/arc_mod_installer/../libnx_min/nx//lib/libnx_min.a(fs_dev.o) (strncmp)
/opt/devkitpro/devkitA64/lib/gcc/aarch64-none-elf/8.3.0/../../../../aarch64-none-elf/lib/pic/libg.a(lib_a-strncpy.o)
                              /home/jam/dev/ultimate/saltynx/arc_mod_installer/../libnx_min/nx//lib/libnx_min.a(newlib.o) (strncpy)
/opt/devkitpro/devkitA64/lib/gcc/aarch64-none-elf/8.3.0/../../../../aarch64-none-elf/lib/pic/libg.a(lib_a-strnlen.o)
                              /home/jam/dev/ultimate/saltynx/arc_mod_installer/../libnx_min/nx//lib/libnx_min.a(fs_dev.o) (strnlen)
/opt/devkitpro/devkitA64/lib/gcc/aarch64-none-elf/8.3.0/../../../../aarch64-none-elf/lib/pic/libg.a(lib_a-strrchr.o)
                              main.o (strrchr)
/opt/devkitpro/devkitA64/lib/gcc/aarch64-none-elf/8.3.0/../../../../aarch64-none-elf/lib/pic/libg.a(lib_a-strtol.o)
                              main.o (strtol)
/opt/devkitpro/devkitA64/lib/gcc/aarch64-none-elf/8.3.0/../../../../aarch64-none-elf/lib/pic/libg.a(lib_a-svfprintf.o)
                              /opt/devkitpro/devkitA64/lib/gcc/aarch64-none-elf/8.3.0/../../../../aarch64-none-elf/lib/pic/libg.a(lib_a-snprintf.o) (_svfprintf_r)
/opt/devkitpro/devkitA64/lib/gcc/aarch64-none-elf/8.3.0/../../../../aarch64-none-elf/lib/pic/libg.a(lib_a-wcrtomb.o)
                              /opt/devkitpro/devkitA64/lib/gcc/aarch64-none-elf/8.3.0/../../../../aarch64-none-elf/lib/pic/libg.a(lib_a-svfprintf.o) (_wcrtomb_r)
/opt/devkitpro/devkitA64/lib/gcc/aarch64-none-elf/8.3.0/../../../../aarch64-none-elf/lib/pic/libg.a(lib_a-wcsrtombs.o)
                              /opt/devkitpro/devkitA64/lib/gcc/aarch64-none-elf/8.3.0/../../../../aarch64-none-elf/lib/pic/libg.a(lib_a-svfprintf.o) (_wcsrtombs_r)
/opt/devkitpro/devkitA64/lib/gcc/aarch64-none-elf/8.3.0/../../../../aarch64-none-elf/lib/pic/libg.a(lib_a-__call_atexit.o)
                              /opt/devkitpro/devkitA64/lib/gcc/aarch64-none-elf/8.3.0/../../../../aarch64-none-elf/lib/pic/libg.a(lib_a-exit.o) (__call_exitprocs)
/opt/devkitpro/devkitA64/lib/gcc/aarch64-none-elf/8.3.0/../../../../aarch64-none-elf/lib/pic/libg.a(lib_a-dtoa.o)
                              /opt/devkitpro/devkitA64/lib/gcc/aarch64-none-elf/8.3.0/../../../../aarch64-none-elf/lib/pic/libg.a(lib_a-svfprintf.o) (_dtoa_r)
/opt/devkitpro/devkitA64/lib/gcc/aarch64-none-elf/8.3.0/../../../../aarch64-none-elf/lib/pic/libg.a(lib_a-environ.o)
                              /opt/devkitpro/devkitA64/lib/gcc/aarch64-none-elf/8.3.0/../../../../aarch64-none-elf/lib/pic/libg.a(lib_a-setenv_r.o) (environ)
/opt/devkitpro/devkitA64/lib/gcc/aarch64-none-elf/8.3.0/../../../../aarch64-none-elf/lib/pic/libg.a(lib_a-envlock.o)
                              /opt/devkitpro/devkitA64/lib/gcc/aarch64-none-elf/8.3.0/../../../../aarch64-none-elf/lib/pic/libg.a(lib_a-setenv_r.o) (__env_lock)
/opt/devkitpro/devkitA64/lib/gcc/aarch64-none-elf/8.3.0/../../../../aarch64-none-elf/lib/pic/libg.a(lib_a-freer.o)
                              /opt/devkitpro/devkitA64/lib/gcc/aarch64-none-elf/8.3.0/../../../../aarch64-none-elf/lib/pic/libg.a(lib_a-malignr.o) (_free_r)
/opt/devkitpro/devkitA64/lib/gcc/aarch64-none-elf/8.3.0/../../../../aarch64-none-elf/lib/pic/libg.a(lib_a-getenv_r.o)
                              /opt/devkitpro/devkitA64/lib/gcc/aarch64-none-elf/8.3.0/../../../../aarch64-none-elf/lib/pic/libg.a(lib_a-setenv_r.o) (_findenv_r)
/opt/devkitpro/devkitA64/lib/gcc/aarch64-none-elf/8.3.0/../../../../aarch64-none-elf/lib/pic/libg.a(lib_a-localeconv.o)
                              /opt/devkitpro/devkitA64/lib/gcc/aarch64-none-elf/8.3.0/../../../../aarch64-none-elf/lib/pic/libg.a(lib_a-svfprintf.o) (_localeconv_r)
/opt/devkitpro/devkitA64/lib/gcc/aarch64-none-elf/8.3.0/../../../../aarch64-none-elf/lib/pic/libg.a(lib_a-locale.o)
                              /opt/devkitpro/devkitA64/lib/gcc/aarch64-none-elf/8.3.0/../../../../aarch64-none-elf/lib/pic/libg.a(lib_a-svfprintf.o) (__global_locale)
/opt/devkitpro/devkitA64/lib/gcc/aarch64-none-elf/8.3.0/../../../../aarch64-none-elf/lib/pic/libg.a(lib_a-mbtowc_r.o)
                              /opt/devkitpro/devkitA64/lib/gcc/aarch64-none-elf/8.3.0/../../../../aarch64-none-elf/lib/pic/libg.a(lib_a-locale.o) (__ascii_mbtowc)
/opt/devkitpro/devkitA64/lib/gcc/aarch64-none-elf/8.3.0/../../../../aarch64-none-elf/lib/pic/libg.a(lib_a-memchr.o)
                              /opt/devkitpro/devkitA64/lib/gcc/aarch64-none-elf/8.3.0/../../../../aarch64-none-elf/lib/pic/libg.a(lib_a-svfprintf.o) (memchr)
/opt/devkitpro/devkitA64/lib/gcc/aarch64-none-elf/8.3.0/../../../../aarch64-none-elf/lib/pic/libg.a(lib_a-mprec.o)
                              /opt/devkitpro/devkitA64/lib/gcc/aarch64-none-elf/8.3.0/../../../../aarch64-none-elf/lib/pic/libg.a(lib_a-dtoa.o) (_Balloc)
/opt/devkitpro/devkitA64/lib/gcc/aarch64-none-elf/8.3.0/../../../../aarch64-none-elf/lib/pic/libg.a(lib_a-reallocr.o)
                              /opt/devkitpro/devkitA64/lib/gcc/aarch64-none-elf/8.3.0/../../../../aarch64-none-elf/lib/pic/libg.a(lib_a-setenv_r.o) (_realloc_r)
/opt/devkitpro/devkitA64/lib/gcc/aarch64-none-elf/8.3.0/../../../../aarch64-none-elf/lib/pic/libg.a(lib_a-s_frexp.o)
                              /opt/devkitpro/devkitA64/lib/gcc/aarch64-none-elf/8.3.0/../../../../aarch64-none-elf/lib/pic/libg.a(lib_a-svfprintf.o) (frexp)
/opt/devkitpro/devkitA64/lib/gcc/aarch64-none-elf/8.3.0/../../../../aarch64-none-elf/lib/pic/libg.a(lib_a-strcasecmp.o)
                              /opt/devkitpro/devkitA64/lib/gcc/aarch64-none-elf/8.3.0/../../../../aarch64-none-elf/lib/pic/libg.a(lib_a-locale.o) (strcasecmp)
/opt/devkitpro/devkitA64/lib/gcc/aarch64-none-elf/8.3.0/../../../../aarch64-none-elf/lib/pic/libg.a(lib_a-strcat.o)
                              /opt/devkitpro/devkitA64/lib/gcc/aarch64-none-elf/8.3.0/../../../../aarch64-none-elf/lib/pic/libg.a(lib_a-locale.o) (strcat)
/opt/devkitpro/devkitA64/lib/gcc/aarch64-none-elf/8.3.0/../../../../aarch64-none-elf/lib/pic/libg.a(lib_a-strcmp.o)
                              /opt/devkitpro/devkitA64/lib/gcc/aarch64-none-elf/8.3.0/../../../../aarch64-none-elf/lib/pic/libg.a(lib_a-locale.o) (strcmp)
/opt/devkitpro/devkitA64/lib/gcc/aarch64-none-elf/8.3.0/../../../../aarch64-none-elf/lib/pic/libg.a(lib_a-strlcpy.o)
                              /opt/devkitpro/devkitA64/lib/gcc/aarch64-none-elf/8.3.0/../../../../aarch64-none-elf/lib/pic/libg.a(lib_a-locale.o) (strlcpy)
/opt/devkitpro/devkitA64/lib/gcc/aarch64-none-elf/8.3.0/../../../../aarch64-none-elf/lib/pic/libg.a(lib_a-strncasecmp.o)
                              /opt/devkitpro/devkitA64/lib/gcc/aarch64-none-elf/8.3.0/../../../../aarch64-none-elf/lib/pic/libg.a(lib_a-locale.o) (strncasecmp)
/opt/devkitpro/devkitA64/lib/gcc/aarch64-none-elf/8.3.0/../../../../aarch64-none-elf/lib/pic/libg.a(lib_a-svfiprintf.o)
                              /opt/devkitpro/devkitA64/lib/gcc/aarch64-none-elf/8.3.0/../../../../aarch64-none-elf/lib/pic/libg.a(lib_a-svfprintf.o) (__chclass)
/opt/devkitpro/devkitA64/lib/gcc/aarch64-none-elf/8.3.0/../../../../aarch64-none-elf/lib/pic/libg.a(lib_a-wcsnrtombs.o)
                              /opt/devkitpro/devkitA64/lib/gcc/aarch64-none-elf/8.3.0/../../../../aarch64-none-elf/lib/pic/libg.a(lib_a-wcsrtombs.o) (_wcsnrtombs_r)
/opt/devkitpro/devkitA64/lib/gcc/aarch64-none-elf/8.3.0/../../../../aarch64-none-elf/lib/pic/libg.a(lib_a-wctomb_r.o)
                              /opt/devkitpro/devkitA64/lib/gcc/aarch64-none-elf/8.3.0/../../../../aarch64-none-elf/lib/pic/libg.a(lib_a-locale.o) (__ascii_wctomb)
/opt/devkitpro/devkitA64/lib/gcc/aarch64-none-elf/8.3.0/../../../../aarch64-none-elf/lib/pic/libg.a(lib_a-callocr.o)
                              /opt/devkitpro/devkitA64/lib/gcc/aarch64-none-elf/8.3.0/../../../../aarch64-none-elf/lib/pic/libg.a(lib_a-mprec.o) (_calloc_r)
/opt/devkitpro/devkitA64/lib/gcc/aarch64-none-elf/8.3.0/../../../../aarch64-none-elf/lib/pic/libg.a(lib_a-memmove.o)
                              /opt/devkitpro/devkitA64/lib/gcc/aarch64-none-elf/8.3.0/../../../../aarch64-none-elf/lib/pic/libg.a(lib_a-reallocr.o) (memmove)
/opt/devkitpro/devkitA64/lib/gcc/aarch64-none-elf/8.3.0/../../../../aarch64-none-elf/lib/pic/libsysbase.a(iosupport.o)
                              /home/jam/dev/ultimate/saltynx/arc_mod_installer/../libnx_min/nx//lib/libnx_min.a(fs_dev.o) (setDefaultDevice)
/opt/devkitpro/devkitA64/lib/gcc/aarch64-none-elf/8.3.0/../../../../aarch64-none-elf/lib/pic/libsysbase.a(sbrk.o)
                              /opt/devkitpro/devkitA64/lib/gcc/aarch64-none-elf/8.3.0/../../../../aarch64-none-elf/lib/pic/libg.a(lib_a-mallocr.o) (_sbrk_r)
/opt/devkitpro/devkitA64/lib/gcc/aarch64-none-elf/8.3.0/../../../../aarch64-none-elf/lib/pic/libsysbase.a(_exit.o)
                              /opt/devkitpro/devkitA64/lib/gcc/aarch64-none-elf/8.3.0/../../../../aarch64-none-elf/lib/pic/libg.a(lib_a-exit.o) (_exit)
/opt/devkitpro/devkitA64/lib/gcc/aarch64-none-elf/8.3.0/../../../../aarch64-none-elf/lib/pic/libsysbase.a(malloc_vars.o)
                              main.o (fake_heap_start)
/opt/devkitpro/devkitA64/lib/gcc/aarch64-none-elf/8.3.0/../../../../aarch64-none-elf/lib/pic/libsysbase.a(chdir.o)
                              /home/jam/dev/ultimate/saltynx/arc_mod_installer/../libnx_min/nx//lib/libnx_min.a(fs_dev.o) (chdir)
/opt/devkitpro/devkitA64/lib/gcc/aarch64-none-elf/8.3.0/../../../../aarch64-none-elf/lib/pic/libsysbase.a(locks.o)
                              /home/jam/dev/ultimate/saltynx/arc_mod_installer/../libnx_min/nx//lib/libnx_min.a(newlib.o) (timespec2nsec)
/opt/devkitpro/devkitA64/lib/gcc/aarch64-none-elf/8.3.0/../../../../aarch64-none-elf/lib/pic/libsysbase.a(getreent.o)
                              /home/jam/dev/ultimate/saltynx/arc_mod_installer/../libnx_min/nx//lib/libnx_min.a(fs_dev.o) (__getreent)
/opt/devkitpro/devkitA64/lib/gcc/aarch64-none-elf/8.3.0/../../../../aarch64-none-elf/lib/pic/libsysbase.a(clocks.o)
                              /opt/devkitpro/devkitA64/lib/gcc/aarch64-none-elf/8.3.0/../../../../aarch64-none-elf/lib/pic/libsysbase.a(locks.o) (clock_gettime)
/opt/devkitpro/devkitA64/lib/gcc/aarch64-none-elf/8.3.0/pic/libgcc.a(trunctfdf2.o)
                              /opt/devkitpro/devkitA64/lib/gcc/aarch64-none-elf/8.3.0/../../../../aarch64-none-elf/lib/pic/libg.a(lib_a-svfprintf.o) (__trunctfdf2)
/opt/devkitpro/devkitA64/lib/gcc/aarch64-none-elf/8.3.0/pic/libgcc.a(sfp-exceptions.o)
                              /opt/devkitpro/devkitA64/lib/gcc/aarch64-none-elf/8.3.0/pic/libgcc.a(trunctfdf2.o) (__sfp_handle_exceptions)

Allocating common symbols
Common symbol       size              file

__nx_exceptiondump  0x340             /home/jam/dev/ultimate/saltynx/arc_mod_installer/../libnx_min/nx//lib/libnx_min.a(init.o)
__system_argv       0x8               /home/jam/dev/ultimate/saltynx/arc_mod_installer/../libnx_min/nx//lib/libnx_min.a(argv.o)
__system_argc       0x4               /home/jam/dev/ultimate/saltynx/arc_mod_installer/../libnx_min/nx//lib/libnx_min.a(argv.o)
orig_ctx            0x8               main.o
__stack_top         0x8               /home/jam/dev/ultimate/saltynx/arc_mod_installer/../libnx_min/nx//lib/libnx_min.a(init.o)
orig_main_thread    0x4               main.o
orig_saved_lr       0x8               main.o

Discarded input sections

 .text          0x0000000000000000        0x0 /opt/devkitpro/devkitA64/lib/gcc/aarch64-none-elf/8.3.0/pic/crti.o
 .data          0x0000000000000000        0x0 /opt/devkitpro/devkitA64/lib/gcc/aarch64-none-elf/8.3.0/pic/crti.o
 .bss           0x0000000000000000        0x0 /opt/devkitpro/devkitA64/lib/gcc/aarch64-none-elf/8.3.0/pic/crti.o
 .text          0x0000000000000000        0x0 /opt/devkitpro/devkitA64/lib/gcc/aarch64-none-elf/8.3.0/pic/crtbegin.o
 .data          0x0000000000000000        0x0 /opt/devkitpro/devkitA64/lib/gcc/aarch64-none-elf/8.3.0/pic/crtbegin.o
 .bss           0x0000000000000000        0x0 /opt/devkitpro/devkitA64/lib/gcc/aarch64-none-elf/8.3.0/pic/crtbegin.o
 .data.__dso_handle
                0x0000000000000000        0x8 /opt/devkitpro/devkitA64/lib/gcc/aarch64-none-elf/8.3.0/pic/crtbegin.o
 .comment       0x0000000000000000       0x23 /opt/devkitpro/devkitA64/lib/gcc/aarch64-none-elf/8.3.0/pic/crtbegin.o
 .comment       0x0000000000000000       0x23 main.o
 .text          0x0000000000000000        0x0 /home/jam/dev/ultimate/saltynx/arc_mod_installer/../libnx_min/nx//lib/libnx_min.a(switch_crt0.o)
 .data          0x0000000000000000        0x0 /home/jam/dev/ultimate/saltynx/arc_mod_installer/../libnx_min/nx//lib/libnx_min.a(switch_crt0.o)
 .bss           0x0000000000000000        0x0 /home/jam/dev/ultimate/saltynx/arc_mod_installer/../libnx_min/nx//lib/libnx_min.a(switch_crt0.o)
 .debug_line    0x0000000000000000       0xa7 /home/jam/dev/ultimate/saltynx/arc_mod_installer/../libnx_min/nx//lib/libnx_min.a(switch_crt0.o)
 .debug_info    0x0000000000000000       0x2e /home/jam/dev/ultimate/saltynx/arc_mod_installer/../libnx_min/nx//lib/libnx_min.a(switch_crt0.o)
 .debug_abbrev  0x0000000000000000       0x14 /home/jam/dev/ultimate/saltynx/arc_mod_installer/../libnx_min/nx//lib/libnx_min.a(switch_crt0.o)
 .debug_aranges
                0x0000000000000000       0x30 /home/jam/dev/ultimate/saltynx/arc_mod_installer/../libnx_min/nx//lib/libnx_min.a(switch_crt0.o)
 .debug_str     0x0000000000000000       0x89 /home/jam/dev/ultimate/saltynx/arc_mod_installer/../libnx_min/nx//lib/libnx_min.a(switch_crt0.o)
 .text          0x0000000000000000        0x0 /home/jam/dev/ultimate/saltynx/arc_mod_installer/../libnx_min/nx//lib/libnx_min.a(dynamic.o)
 .data          0x0000000000000000        0x0 /home/jam/dev/ultimate/saltynx/arc_mod_installer/../libnx_min/nx//lib/libnx_min.a(dynamic.o)
 .bss           0x0000000000000000        0x0 /home/jam/dev/ultimate/saltynx/arc_mod_installer/../libnx_min/nx//lib/libnx_min.a(dynamic.o)
 .debug_info    0x0000000000000000      0x3c9 /home/jam/dev/ultimate/saltynx/arc_mod_installer/../libnx_min/nx//lib/libnx_min.a(dynamic.o)
 .debug_abbrev  0x0000000000000000      0x16b /home/jam/dev/ultimate/saltynx/arc_mod_installer/../libnx_min/nx//lib/libnx_min.a(dynamic.o)
 .debug_loc     0x0000000000000000      0x1b8 /home/jam/dev/ultimate/saltynx/arc_mod_installer/../libnx_min/nx//lib/libnx_min.a(dynamic.o)
 .debug_aranges
                0x0000000000000000       0x30 /home/jam/dev/ultimate/saltynx/arc_mod_installer/../libnx_min/nx//lib/libnx_min.a(dynamic.o)
 .debug_ranges  0x0000000000000000       0x20 /home/jam/dev/ultimate/saltynx/arc_mod_installer/../libnx_min/nx//lib/libnx_min.a(dynamic.o)
 .debug_line    0x0000000000000000      0x291 /home/jam/dev/ultimate/saltynx/arc_mod_installer/../libnx_min/nx//lib/libnx_min.a(dynamic.o)
 .debug_str     0x0000000000000000      0x7ff /home/jam/dev/ultimate/saltynx/arc_mod_installer/../libnx_min/nx//lib/libnx_min.a(dynamic.o)
 .comment       0x0000000000000000       0x23 /home/jam/dev/ultimate/saltynx/arc_mod_installer/../libnx_min/nx//lib/libnx_min.a(dynamic.o)
 .text          0x0000000000000000        0x0 /home/jam/dev/ultimate/saltynx/arc_mod_installer/../libnx_min/nx//lib/libnx_min.a(init.o)
 .data          0x0000000000000000        0x0 /home/jam/dev/ultimate/saltynx/arc_mod_installer/../libnx_min/nx//lib/libnx_min.a(init.o)
 .bss           0x0000000000000000        0x0 /home/jam/dev/ultimate/saltynx/arc_mod_installer/../libnx_min/nx//lib/libnx_min.a(init.o)
 .text.__libnx_init
                0x0000000000000000       0x28 /home/jam/dev/ultimate/saltynx/arc_mod_installer/../libnx_min/nx//lib/libnx_min.a(init.o)
 .text.__libnx_exit
                0x0000000000000000       0x20 /home/jam/dev/ultimate/saltynx/arc_mod_installer/../libnx_min/nx//lib/libnx_min.a(init.o)
 .debug_info    0x0000000000000000      0xce2 /home/jam/dev/ultimate/saltynx/arc_mod_installer/../libnx_min/nx//lib/libnx_min.a(init.o)
 .debug_abbrev  0x0000000000000000      0x2a1 /home/jam/dev/ultimate/saltynx/arc_mod_installer/../libnx_min/nx//lib/libnx_min.a(init.o)
 .debug_loc     0x0000000000000000      0x34a /home/jam/dev/ultimate/saltynx/arc_mod_installer/../libnx_min/nx//lib/libnx_min.a(init.o)
 .debug_aranges
                0x0000000000000000       0x70 /home/jam/dev/ultimate/saltynx/arc_mod_installer/../libnx_min/nx//lib/libnx_min.a(init.o)
 .debug_ranges  0x0000000000000000       0xa0 /home/jam/dev/ultimate/saltynx/arc_mod_installer/../libnx_min/nx//lib/libnx_min.a(init.o)
 .debug_line    0x0000000000000000      0x63e /home/jam/dev/ultimate/saltynx/arc_mod_installer/../libnx_min/nx//lib/libnx_min.a(init.o)
 .debug_str     0x0000000000000000      0xee1 /home/jam/dev/ultimate/saltynx/arc_mod_installer/../libnx_min/nx//lib/libnx_min.a(init.o)
 .comment       0x0000000000000000       0x23 /home/jam/dev/ultimate/saltynx/arc_mod_installer/../libnx_min/nx//lib/libnx_min.a(init.o)
 .text          0x0000000000000000        0x0 /home/jam/dev/ultimate/saltynx/arc_mod_installer/../libnx_min/nx//lib/libnx_min.a(env.o)
 .data          0x0000000000000000        0x0 /home/jam/dev/ultimate/saltynx/arc_mod_installer/../libnx_min/nx//lib/libnx_min.a(env.o)
 .bss           0x0000000000000000        0x0 /home/jam/dev/ultimate/saltynx/arc_mod_installer/../libnx_min/nx//lib/libnx_min.a(env.o)
 .debug_info    0x0000000000000000     0x111a /home/jam/dev/ultimate/saltynx/arc_mod_installer/../libnx_min/nx//lib/libnx_min.a(env.o)
 .debug_abbrev  0x0000000000000000      0x322 /home/jam/dev/ultimate/saltynx/arc_mod_installer/../libnx_min/nx//lib/libnx_min.a(env.o)
 .debug_loc     0x0000000000000000      0x362 /home/jam/dev/ultimate/saltynx/arc_mod_installer/../libnx_min/nx//lib/libnx_min.a(env.o)
 .debug_aranges
                0x0000000000000000      0x130 /home/jam/dev/ultimate/saltynx/arc_mod_installer/../libnx_min/nx//lib/libnx_min.a(env.o)
 .debug_ranges  0x0000000000000000      0x120 /home/jam/dev/ultimate/saltynx/arc_mod_installer/../libnx_min/nx//lib/libnx_min.a(env.o)
 .debug_line    0x0000000000000000      0x6f6 /home/jam/dev/ultimate/saltynx/arc_mod_installer/../libnx_min/nx//lib/libnx_min.a(env.o)
 .debug_str     0x0000000000000000     0x1046 /home/jam/dev/ultimate/saltynx/arc_mod_installer/../libnx_min/nx//lib/libnx_min.a(env.o)
 .comment       0x0000000000000000       0x23 /home/jam/dev/ultimate/saltynx/arc_mod_installer/../libnx_min/nx//lib/libnx_min.a(env.o)
 .text          0x0000000000000000        0x0 /home/jam/dev/ultimate/saltynx/arc_mod_installer/../libnx_min/nx//lib/libnx_min.a(newlib.o)
 .data          0x0000000000000000        0x0 /home/jam/dev/ultimate/saltynx/arc_mod_installer/../libnx_min/nx//lib/libnx_min.a(newlib.o)
 .bss           0x0000000000000000        0x0 /home/jam/dev/ultimate/saltynx/arc_mod_installer/../libnx_min/nx//lib/libnx_min.a(newlib.o)
 .debug_info    0x0000000000000000     0x2bc2 /home/jam/dev/ultimate/saltynx/arc_mod_installer/../libnx_min/nx//lib/libnx_min.a(newlib.o)
 .debug_abbrev  0x0000000000000000      0x571 /home/jam/dev/ultimate/saltynx/arc_mod_installer/../libnx_min/nx//lib/libnx_min.a(newlib.o)
 .debug_loc     0x0000000000000000     0x192e /home/jam/dev/ultimate/saltynx/arc_mod_installer/../libnx_min/nx//lib/libnx_min.a(newlib.o)
 .debug_aranges
                0x0000000000000000      0x1f0 /home/jam/dev/ultimate/saltynx/arc_mod_installer/../libnx_min/nx//lib/libnx_min.a(newlib.o)
 .debug_ranges  0x0000000000000000      0x4e0 /home/jam/dev/ultimate/saltynx/arc_mod_installer/../libnx_min/nx//lib/libnx_min.a(newlib.o)
 .debug_line    0x0000000000000000     0x10fa /home/jam/dev/ultimate/saltynx/arc_mod_installer/../libnx_min/nx//lib/libnx_min.a(newlib.o)
 .debug_str     0x0000000000000000     0x1876 /home/jam/dev/ultimate/saltynx/arc_mod_installer/../libnx_min/nx//lib/libnx_min.a(newlib.o)
 .comment       0x0000000000000000       0x23 /home/jam/dev/ultimate/saltynx/arc_mod_installer/../libnx_min/nx//lib/libnx_min.a(newlib.o)
 .text          0x0000000000000000        0x0 /home/jam/dev/ultimate/saltynx/arc_mod_installer/../libnx_min/nx//lib/libnx_min.a(argv.o)
 .data          0x0000000000000000        0x0 /home/jam/dev/ultimate/saltynx/arc_mod_installer/../libnx_min/nx//lib/libnx_min.a(argv.o)
 .bss           0x0000000000000000        0x0 /home/jam/dev/ultimate/saltynx/arc_mod_installer/../libnx_min/nx//lib/libnx_min.a(argv.o)
 .debug_info    0x0000000000000000      0xe43 /home/jam/dev/ultimate/saltynx/arc_mod_installer/../libnx_min/nx//lib/libnx_min.a(argv.o)
 .debug_abbrev  0x0000000000000000      0x2de /home/jam/dev/ultimate/saltynx/arc_mod_installer/../libnx_min/nx//lib/libnx_min.a(argv.o)
 .debug_loc     0x0000000000000000      0x6a8 /home/jam/dev/ultimate/saltynx/arc_mod_installer/../libnx_min/nx//lib/libnx_min.a(argv.o)
 .debug_aranges
                0x0000000000000000       0x30 /home/jam/dev/ultimate/saltynx/arc_mod_installer/../libnx_min/nx//lib/libnx_min.a(argv.o)
 .debug_ranges  0x0000000000000000       0x20 /home/jam/dev/ultimate/saltynx/arc_mod_installer/../libnx_min/nx//lib/libnx_min.a(argv.o)
 .debug_line    0x0000000000000000      0x5c9 /home/jam/dev/ultimate/saltynx/arc_mod_installer/../libnx_min/nx//lib/libnx_min.a(argv.o)
 .debug_str     0x0000000000000000      0x83c /home/jam/dev/ultimate/saltynx/arc_mod_installer/../libnx_min/nx//lib/libnx_min.a(argv.o)
 .comment       0x0000000000000000       0x23 /home/jam/dev/ultimate/saltynx/arc_mod_installer/../libnx_min/nx//lib/libnx_min.a(argv.o)
 .text          0x0000000000000000        0x0 /home/jam/dev/ultimate/saltynx/arc_mod_installer/../libnx_min/nx//lib/libnx_min.a(fs_dev.o)
 .data          0x0000000000000000        0x0 /home/jam/dev/ultimate/saltynx/arc_mod_installer/../libnx_min/nx//lib/libnx_min.a(fs_dev.o)
 .bss           0x0000000000000000        0x0 /home/jam/dev/ultimate/saltynx/arc_mod_installer/../libnx_min/nx//lib/libnx_min.a(fs_dev.o)
 .debug_info    0x0000000000000000     0x411e /home/jam/dev/ultimate/saltynx/arc_mod_installer/../libnx_min/nx//lib/libnx_min.a(fs_dev.o)
 .debug_abbrev  0x0000000000000000      0x5b7 /home/jam/dev/ultimate/saltynx/arc_mod_installer/../libnx_min/nx//lib/libnx_min.a(fs_dev.o)
 .debug_loc     0x0000000000000000     0x4332 /home/jam/dev/ultimate/saltynx/arc_mod_installer/../libnx_min/nx//lib/libnx_min.a(fs_dev.o)
 .debug_aranges
                0x0000000000000000      0x2a0 /home/jam/dev/ultimate/saltynx/arc_mod_installer/../libnx_min/nx//lib/libnx_min.a(fs_dev.o)
 .debug_ranges  0x0000000000000000      0x670 /home/jam/dev/ultimate/saltynx/arc_mod_installer/../libnx_min/nx//lib/libnx_min.a(fs_dev.o)
 .debug_line    0x0000000000000000     0x1b08 /home/jam/dev/ultimate/saltynx/arc_mod_installer/../libnx_min/nx//lib/libnx_min.a(fs_dev.o)
 .debug_str     0x0000000000000000     0x1901 /home/jam/dev/ultimate/saltynx/arc_mod_installer/../libnx_min/nx//lib/libnx_min.a(fs_dev.o)
 .comment       0x0000000000000000       0x23 /home/jam/dev/ultimate/saltynx/arc_mod_installer/../libnx_min/nx//lib/libnx_min.a(fs_dev.o)
 .text          0x0000000000000000        0x0 /home/jam/dev/ultimate/saltynx/arc_mod_installer/../libnx_min/nx//lib/libnx_min.a(decode_utf8.o)
 .data          0x0000000000000000        0x0 /home/jam/dev/ultimate/saltynx/arc_mod_installer/../libnx_min/nx//lib/libnx_min.a(decode_utf8.o)
 .bss           0x0000000000000000        0x0 /home/jam/dev/ultimate/saltynx/arc_mod_installer/../libnx_min/nx//lib/libnx_min.a(decode_utf8.o)
 .debug_info    0x0000000000000000      0x170 /home/jam/dev/ultimate/saltynx/arc_mod_installer/../libnx_min/nx//lib/libnx_min.a(decode_utf8.o)
 .debug_abbrev  0x0000000000000000       0x9e /home/jam/dev/ultimate/saltynx/arc_mod_installer/../libnx_min/nx//lib/libnx_min.a(decode_utf8.o)
 .debug_loc     0x0000000000000000      0x334 /home/jam/dev/ultimate/saltynx/arc_mod_installer/../libnx_min/nx//lib/libnx_min.a(decode_utf8.o)
 .debug_aranges
                0x0000000000000000       0x30 /home/jam/dev/ultimate/saltynx/arc_mod_installer/../libnx_min/nx//lib/libnx_min.a(decode_utf8.o)
 .debug_ranges  0x0000000000000000       0x20 /home/jam/dev/ultimate/saltynx/arc_mod_installer/../libnx_min/nx//lib/libnx_min.a(decode_utf8.o)
 .debug_line    0x0000000000000000      0x272 /home/jam/dev/ultimate/saltynx/arc_mod_installer/../libnx_min/nx//lib/libnx_min.a(decode_utf8.o)
 .debug_str     0x0000000000000000      0x221 /home/jam/dev/ultimate/saltynx/arc_mod_installer/../libnx_min/nx//lib/libnx_min.a(decode_utf8.o)
 .comment       0x0000000000000000       0x23 /home/jam/dev/ultimate/saltynx/arc_mod_installer/../libnx_min/nx//lib/libnx_min.a(decode_utf8.o)
 .text          0x0000000000000000        0x0 /home/jam/dev/ultimate/saltynx/arc_mod_installer/../libnx_min/nx//lib/libnx_min.a(svc.o)
 .data          0x0000000000000000        0x0 /home/jam/dev/ultimate/saltynx/arc_mod_installer/../libnx_min/nx//lib/libnx_min.a(svc.o)
 .bss           0x0000000000000000        0x0 /home/jam/dev/ultimate/saltynx/arc_mod_installer/../libnx_min/nx//lib/libnx_min.a(svc.o)
 .debug_line    0x0000000000000000      0x911 /home/jam/dev/ultimate/saltynx/arc_mod_installer/../libnx_min/nx//lib/libnx_min.a(svc.o)
 .debug_info    0x0000000000000000       0x22 /home/jam/dev/ultimate/saltynx/arc_mod_installer/../libnx_min/nx//lib/libnx_min.a(svc.o)
 .debug_abbrev  0x0000000000000000       0x12 /home/jam/dev/ultimate/saltynx/arc_mod_installer/../libnx_min/nx//lib/libnx_min.a(svc.o)
 .debug_aranges
                0x0000000000000000      0x660 /home/jam/dev/ultimate/saltynx/arc_mod_installer/../libnx_min/nx//lib/libnx_min.a(svc.o)
 .debug_str     0x0000000000000000       0x80 /home/jam/dev/ultimate/saltynx/arc_mod_installer/../libnx_min/nx//lib/libnx_min.a(svc.o)
 .debug_ranges  0x0000000000000000      0x660 /home/jam/dev/ultimate/saltynx/arc_mod_installer/../libnx_min/nx//lib/libnx_min.a(svc.o)
 .text          0x0000000000000000        0x0 /home/jam/dev/ultimate/saltynx/arc_mod_installer/../libnx_min/nx//lib/libnx_min.a(exception.o)
 .data          0x0000000000000000        0x0 /home/jam/dev/ultimate/saltynx/arc_mod_installer/../libnx_min/nx//lib/libnx_min.a(exception.o)
 .bss           0x0000000000000000        0x0 /home/jam/dev/ultimate/saltynx/arc_mod_installer/../libnx_min/nx//lib/libnx_min.a(exception.o)
 .debug_line    0x0000000000000000      0x102 /home/jam/dev/ultimate/saltynx/arc_mod_installer/../libnx_min/nx//lib/libnx_min.a(exception.o)
 .debug_info    0x0000000000000000       0x22 /home/jam/dev/ultimate/saltynx/arc_mod_installer/../libnx_min/nx//lib/libnx_min.a(exception.o)
 .debug_abbrev  0x0000000000000000       0x12 /home/jam/dev/ultimate/saltynx/arc_mod_installer/../libnx_min/nx//lib/libnx_min.a(exception.o)
 .debug_aranges
                0x0000000000000000       0x40 /home/jam/dev/ultimate/saltynx/arc_mod_installer/../libnx_min/nx//lib/libnx_min.a(exception.o)
 .debug_str     0x0000000000000000       0x87 /home/jam/dev/ultimate/saltynx/arc_mod_installer/../libnx_min/nx//lib/libnx_min.a(exception.o)
 .debug_ranges  0x0000000000000000       0x40 /home/jam/dev/ultimate/saltynx/arc_mod_installer/../libnx_min/nx//lib/libnx_min.a(exception.o)
 .text          0x0000000000000000        0x0 /home/jam/dev/ultimate/saltynx/arc_mod_installer/../libnx_min/nx//lib/libnx_min.a(readtp.o)
 .data          0x0000000000000000        0x0 /home/jam/dev/ultimate/saltynx/arc_mod_installer/../libnx_min/nx//lib/libnx_min.a(readtp.o)
 .bss           0x0000000000000000        0x0 /home/jam/dev/ultimate/saltynx/arc_mod_installer/../libnx_min/nx//lib/libnx_min.a(readtp.o)
 .debug_line    0x0000000000000000       0x77 /home/jam/dev/ultimate/saltynx/arc_mod_installer/../libnx_min/nx//lib/libnx_min.a(readtp.o)
 .debug_info    0x0000000000000000       0x2e /home/jam/dev/ultimate/saltynx/arc_mod_installer/../libnx_min/nx//lib/libnx_min.a(readtp.o)
 .debug_abbrev  0x0000000000000000       0x14 /home/jam/dev/ultimate/saltynx/arc_mod_installer/../libnx_min/nx//lib/libnx_min.a(readtp.o)
 .debug_aranges
                0x0000000000000000       0x30 /home/jam/dev/ultimate/saltynx/arc_mod_installer/../libnx_min/nx//lib/libnx_min.a(readtp.o)
 .debug_str     0x0000000000000000       0x84 /home/jam/dev/ultimate/saltynx/arc_mod_installer/../libnx_min/nx//lib/libnx_min.a(readtp.o)
 .text          0x0000000000000000        0x0 /home/jam/dev/ultimate/saltynx/arc_mod_installer/../libnx_min/nx//lib/libnx_min.a(mutex.o)
 .data          0x0000000000000000        0x0 /home/jam/dev/ultimate/saltynx/arc_mod_installer/../libnx_min/nx//lib/libnx_min.a(mutex.o)
 .bss           0x0000000000000000        0x0 /home/jam/dev/ultimate/saltynx/arc_mod_installer/../libnx_min/nx//lib/libnx_min.a(mutex.o)
 .debug_info    0x0000000000000000      0x782 /home/jam/dev/ultimate/saltynx/arc_mod_installer/../libnx_min/nx//lib/libnx_min.a(mutex.o)
 .debug_abbrev  0x0000000000000000      0x1fe /home/jam/dev/ultimate/saltynx/arc_mod_installer/../libnx_min/nx//lib/libnx_min.a(mutex.o)
 .debug_loc     0x0000000000000000      0x3d1 /home/jam/dev/ultimate/saltynx/arc_mod_installer/../libnx_min/nx//lib/libnx_min.a(mutex.o)
 .debug_aranges
                0x0000000000000000       0x80 /home/jam/dev/ultimate/saltynx/arc_mod_installer/../libnx_min/nx//lib/libnx_min.a(mutex.o)
 .debug_ranges  0x0000000000000000      0x470 /home/jam/dev/ultimate/saltynx/arc_mod_installer/../libnx_min/nx//lib/libnx_min.a(mutex.o)
 .debug_line    0x0000000000000000      0x56a /home/jam/dev/ultimate/saltynx/arc_mod_installer/../libnx_min/nx//lib/libnx_min.a(mutex.o)
 .debug_str     0x0000000000000000      0x36c /home/jam/dev/ultimate/saltynx/arc_mod_installer/../libnx_min/nx//lib/libnx_min.a(mutex.o)
 .comment       0x0000000000000000       0x23 /home/jam/dev/ultimate/saltynx/arc_mod_installer/../libnx_min/nx//lib/libnx_min.a(mutex.o)
 .text          0x0000000000000000        0x0 /home/jam/dev/ultimate/saltynx/arc_mod_installer/../libnx_min/nx//lib/libnx_min.a(virtmem.o)
 .data          0x0000000000000000        0x0 /home/jam/dev/ultimate/saltynx/arc_mod_installer/../libnx_min/nx//lib/libnx_min.a(virtmem.o)
 .bss           0x0000000000000000        0x0 /home/jam/dev/ultimate/saltynx/arc_mod_installer/../libnx_min/nx//lib/libnx_min.a(virtmem.o)
 .debug_info    0x0000000000000000      0xb52 /home/jam/dev/ultimate/saltynx/arc_mod_installer/../libnx_min/nx//lib/libnx_min.a(virtmem.o)
 .debug_abbrev  0x0000000000000000      0x2cf /home/jam/dev/ultimate/saltynx/arc_mod_installer/../libnx_min/nx//lib/libnx_min.a(virtmem.o)
 .debug_loc     0x0000000000000000      0x668 /home/jam/dev/ultimate/saltynx/arc_mod_installer/../libnx_min/nx//lib/libnx_min.a(virtmem.o)
 .debug_aranges
                0x0000000000000000       0x70 /home/jam/dev/ultimate/saltynx/arc_mod_installer/../libnx_min/nx//lib/libnx_min.a(virtmem.o)
 .debug_ranges  0x0000000000000000      0x170 /home/jam/dev/ultimate/saltynx/arc_mod_installer/../libnx_min/nx//lib/libnx_min.a(virtmem.o)
 .debug_line    0x0000000000000000      0x5a5 /home/jam/dev/ultimate/saltynx/arc_mod_installer/../libnx_min/nx//lib/libnx_min.a(virtmem.o)
 .debug_str     0x0000000000000000      0xbc2 /home/jam/dev/ultimate/saltynx/arc_mod_installer/../libnx_min/nx//lib/libnx_min.a(virtmem.o)
 .comment       0x0000000000000000       0x23 /home/jam/dev/ultimate/saltynx/arc_mod_installer/../libnx_min/nx//lib/libnx_min.a(virtmem.o)
 .text          0x0000000000000000        0x0 /home/jam/dev/ultimate/saltynx/arc_mod_installer/../libnx_min/nx//lib/libnx_min.a(condvar.o)
 .data          0x0000000000000000        0x0 /home/jam/dev/ultimate/saltynx/arc_mod_installer/../libnx_min/nx//lib/libnx_min.a(condvar.o)
 .bss           0x0000000000000000        0x0 /home/jam/dev/ultimate/saltynx/arc_mod_installer/../libnx_min/nx//lib/libnx_min.a(condvar.o)
 .debug_info    0x0000000000000000      0x396 /home/jam/dev/ultimate/saltynx/arc_mod_installer/../libnx_min/nx//lib/libnx_min.a(condvar.o)
 .debug_abbrev  0x0000000000000000      0x1aa /home/jam/dev/ultimate/saltynx/arc_mod_installer/../libnx_min/nx//lib/libnx_min.a(condvar.o)
 .debug_loc     0x0000000000000000      0x1c1 /home/jam/dev/ultimate/saltynx/arc_mod_installer/../libnx_min/nx//lib/libnx_min.a(condvar.o)
 .debug_aranges
                0x0000000000000000       0x30 /home/jam/dev/ultimate/saltynx/arc_mod_installer/../libnx_min/nx//lib/libnx_min.a(condvar.o)
 .debug_ranges  0x0000000000000000       0x60 /home/jam/dev/ultimate/saltynx/arc_mod_installer/../libnx_min/nx//lib/libnx_min.a(condvar.o)
 .debug_line    0x0000000000000000      0x362 /home/jam/dev/ultimate/saltynx/arc_mod_installer/../libnx_min/nx//lib/libnx_min.a(condvar.o)
 .debug_str     0x0000000000000000      0x318 /home/jam/dev/ultimate/saltynx/arc_mod_installer/../libnx_min/nx//lib/libnx_min.a(condvar.o)
 .comment       0x0000000000000000       0x23 /home/jam/dev/ultimate/saltynx/arc_mod_installer/../libnx_min/nx//lib/libnx_min.a(condvar.o)
 .text          0x0000000000000000        0x0 /home/jam/dev/ultimate/saltynx/arc_mod_installer/../libnx_min/nx//lib/libnx_min.a(thread.o)
 .data          0x0000000000000000        0x0 /home/jam/dev/ultimate/saltynx/arc_mod_installer/../libnx_min/nx//lib/libnx_min.a(thread.o)
 .bss           0x0000000000000000        0x0 /home/jam/dev/ultimate/saltynx/arc_mod_installer/../libnx_min/nx//lib/libnx_min.a(thread.o)
 .debug_info    0x0000000000000000     0x1a68 /home/jam/dev/ultimate/saltynx/arc_mod_installer/../libnx_min/nx//lib/libnx_min.a(thread.o)
 .debug_abbrev  0x0000000000000000      0x492 /home/jam/dev/ultimate/saltynx/arc_mod_installer/../libnx_min/nx//lib/libnx_min.a(thread.o)
 .debug_loc     0x0000000000000000      0xbd2 /home/jam/dev/ultimate/saltynx/arc_mod_installer/../libnx_min/nx//lib/libnx_min.a(thread.o)
 .debug_aranges
                0x0000000000000000      0x100 /home/jam/dev/ultimate/saltynx/arc_mod_installer/../libnx_min/nx//lib/libnx_min.a(thread.o)
 .debug_ranges  0x0000000000000000      0x320 /home/jam/dev/ultimate/saltynx/arc_mod_installer/../libnx_min/nx//lib/libnx_min.a(thread.o)
 .debug_line    0x0000000000000000      0x9d9 /home/jam/dev/ultimate/saltynx/arc_mod_installer/../libnx_min/nx//lib/libnx_min.a(thread.o)
 .debug_str     0x0000000000000000      0xfb6 /home/jam/dev/ultimate/saltynx/arc_mod_installer/../libnx_min/nx//lib/libnx_min.a(thread.o)
 .comment       0x0000000000000000       0x23 /home/jam/dev/ultimate/saltynx/arc_mod_installer/../libnx_min/nx//lib/libnx_min.a(thread.o)
 .text          0x0000000000000000        0x0 /home/jam/dev/ultimate/saltynx/arc_mod_installer/../libnx_min/nx//lib/libnx_min.a(applet.o)
 .data          0x0000000000000000        0x0 /home/jam/dev/ultimate/saltynx/arc_mod_installer/../libnx_min/nx//lib/libnx_min.a(applet.o)
 .bss           0x0000000000000000        0x0 /home/jam/dev/ultimate/saltynx/arc_mod_installer/../libnx_min/nx//lib/libnx_min.a(applet.o)
 .data.__nx_applet_type
                0x0000000000000000        0x4 /home/jam/dev/ultimate/saltynx/arc_mod_installer/../libnx_min/nx//lib/libnx_min.a(applet.o)
 .debug_info    0x0000000000000000    0x1572b /home/jam/dev/ultimate/saltynx/arc_mod_installer/../libnx_min/nx//lib/libnx_min.a(applet.o)
 .debug_abbrev  0x0000000000000000      0x76e /home/jam/dev/ultimate/saltynx/arc_mod_installer/../libnx_min/nx//lib/libnx_min.a(applet.o)
 .debug_loc     0x0000000000000000    0x20f04 /home/jam/dev/ultimate/saltynx/arc_mod_installer/../libnx_min/nx//lib/libnx_min.a(applet.o)
 .debug_aranges
                0x0000000000000000      0x730 /home/jam/dev/ultimate/saltynx/arc_mod_installer/../libnx_min/nx//lib/libnx_min.a(applet.o)
 .debug_ranges  0x0000000000000000     0x8b40 /home/jam/dev/ultimate/saltynx/arc_mod_installer/../libnx_min/nx//lib/libnx_min.a(applet.o)
 .debug_line    0x0000000000000000     0xadff /home/jam/dev/ultimate/saltynx/arc_mod_installer/../libnx_min/nx//lib/libnx_min.a(applet.o)
 .debug_str     0x0000000000000000     0x3088 /home/jam/dev/ultimate/saltynx/arc_mod_installer/../libnx_min/nx//lib/libnx_min.a(applet.o)
 .comment       0x0000000000000000       0x23 /home/jam/dev/ultimate/saltynx/arc_mod_installer/../libnx_min/nx//lib/libnx_min.a(applet.o)
 .text          0x0000000000000000        0x0 /home/jam/dev/ultimate/saltynx/arc_mod_installer/../libnx_min/nx//lib/libnx_min.a(time.o)
 .data          0x0000000000000000        0x0 /home/jam/dev/ultimate/saltynx/arc_mod_installer/../libnx_min/nx//lib/libnx_min.a(time.o)
 .bss           0x0000000000000000        0x0 /home/jam/dev/ultimate/saltynx/arc_mod_installer/../libnx_min/nx//lib/libnx_min.a(time.o)
 .debug_info    0x0000000000000000     0x2f93 /home/jam/dev/ultimate/saltynx/arc_mod_installer/../libnx_min/nx//lib/libnx_min.a(time.o)
 .debug_abbrev  0x0000000000000000      0x544 /home/jam/dev/ultimate/saltynx/arc_mod_installer/../libnx_min/nx//lib/libnx_min.a(time.o)
 .debug_loc     0x0000000000000000     0x36b5 /home/jam/dev/ultimate/saltynx/arc_mod_installer/../libnx_min/nx//lib/libnx_min.a(time.o)
 .debug_aranges
                0x0000000000000000       0xa0 /home/jam/dev/ultimate/saltynx/arc_mod_installer/../libnx_min/nx//lib/libnx_min.a(time.o)
 .debug_ranges  0x0000000000000000      0xa70 /home/jam/dev/ultimate/saltynx/arc_mod_installer/../libnx_min/nx//lib/libnx_min.a(time.o)
 .debug_line    0x0000000000000000     0x1125 /home/jam/dev/ultimate/saltynx/arc_mod_installer/../libnx_min/nx//lib/libnx_min.a(time.o)
 .debug_str     0x0000000000000000     0x14e3 /home/jam/dev/ultimate/saltynx/arc_mod_installer/../libnx_min/nx//lib/libnx_min.a(time.o)
 .comment       0x0000000000000000       0x23 /home/jam/dev/ultimate/saltynx/arc_mod_installer/../libnx_min/nx//lib/libnx_min.a(time.o)
 .text          0x0000000000000000        0x0 /home/jam/dev/ultimate/saltynx/arc_mod_installer/../libnx_min/nx//lib/libnx_min.a(hid.o)
 .data          0x0000000000000000        0x0 /home/jam/dev/ultimate/saltynx/arc_mod_installer/../libnx_min/nx//lib/libnx_min.a(hid.o)
 .bss           0x0000000000000000        0x0 /home/jam/dev/ultimate/saltynx/arc_mod_installer/../libnx_min/nx//lib/libnx_min.a(hid.o)
 .debug_info    0x0000000000000000     0xb19f /home/jam/dev/ultimate/saltynx/arc_mod_installer/../libnx_min/nx//lib/libnx_min.a(hid.o)
 .debug_abbrev  0x0000000000000000      0x743 /home/jam/dev/ultimate/saltynx/arc_mod_installer/../libnx_min/nx//lib/libnx_min.a(hid.o)
 .debug_loc     0x0000000000000000    0x1192e /home/jam/dev/ultimate/saltynx/arc_mod_installer/../libnx_min/nx//lib/libnx_min.a(hid.o)
 .debug_aranges
                0x0000000000000000      0x450 /home/jam/dev/ultimate/saltynx/arc_mod_installer/../libnx_min/nx//lib/libnx_min.a(hid.o)
 .debug_ranges  0x0000000000000000     0x3140 /home/jam/dev/ultimate/saltynx/arc_mod_installer/../libnx_min/nx//lib/libnx_min.a(hid.o)
 .debug_line    0x0000000000000000     0x50da /home/jam/dev/ultimate/saltynx/arc_mod_installer/../libnx_min/nx//lib/libnx_min.a(hid.o)
 .debug_str     0x0000000000000000     0x3354 /home/jam/dev/ultimate/saltynx/arc_mod_installer/../libnx_min/nx//lib/libnx_min.a(hid.o)
 .comment       0x0000000000000000       0x23 /home/jam/dev/ultimate/saltynx/arc_mod_installer/../libnx_min/nx//lib/libnx_min.a(hid.o)
 .text          0x0000000000000000        0x0 /home/jam/dev/ultimate/saltynx/arc_mod_installer/../libnx_min/nx//lib/libnx_min.a(sm.o)
 .data          0x0000000000000000        0x0 /home/jam/dev/ultimate/saltynx/arc_mod_installer/../libnx_min/nx//lib/libnx_min.a(sm.o)
 .bss           0x0000000000000000        0x0 /home/jam/dev/ultimate/saltynx/arc_mod_installer/../libnx_min/nx//lib/libnx_min.a(sm.o)
 .debug_info    0x0000000000000000     0x34eb /home/jam/dev/ultimate/saltynx/arc_mod_installer/../libnx_min/nx//lib/libnx_min.a(sm.o)
 .debug_abbrev  0x0000000000000000      0x4c4 /home/jam/dev/ultimate/saltynx/arc_mod_installer/../libnx_min/nx//lib/libnx_min.a(sm.o)
 .debug_loc     0x0000000000000000     0x5a55 /home/jam/dev/ultimate/saltynx/arc_mod_installer/../libnx_min/nx//lib/libnx_min.a(sm.o)
 .debug_aranges
                0x0000000000000000       0xe0 /home/jam/dev/ultimate/saltynx/arc_mod_installer/../libnx_min/nx//lib/libnx_min.a(sm.o)
 .debug_ranges  0x0000000000000000     0x1160 /home/jam/dev/ultimate/saltynx/arc_mod_installer/../libnx_min/nx//lib/libnx_min.a(sm.o)
 .debug_line    0x0000000000000000     0x1771 /home/jam/dev/ultimate/saltynx/arc_mod_installer/../libnx_min/nx//lib/libnx_min.a(sm.o)
 .debug_str     0x0000000000000000     0x14d3 /home/jam/dev/ultimate/saltynx/arc_mod_installer/../libnx_min/nx//lib/libnx_min.a(sm.o)
 .comment       0x0000000000000000       0x23 /home/jam/dev/ultimate/saltynx/arc_mod_installer/../libnx_min/nx//lib/libnx_min.a(sm.o)
 .text          0x0000000000000000        0x0 /home/jam/dev/ultimate/saltynx/arc_mod_installer/../libnx_min/nx//lib/libnx_min.a(apm.o)
 .data          0x0000000000000000        0x0 /home/jam/dev/ultimate/saltynx/arc_mod_installer/../libnx_min/nx//lib/libnx_min.a(apm.o)
 .bss           0x0000000000000000        0x0 /home/jam/dev/ultimate/saltynx/arc_mod_installer/../libnx_min/nx//lib/libnx_min.a(apm.o)
 .debug_info    0x0000000000000000     0x1b13 /home/jam/dev/ultimate/saltynx/arc_mod_installer/../libnx_min/nx//lib/libnx_min.a(apm.o)
 .debug_abbrev  0x0000000000000000      0x442 /home/jam/dev/ultimate/saltynx/arc_mod_installer/../libnx_min/nx//lib/libnx_min.a(apm.o)
 .debug_loc     0x0000000000000000     0x239a /home/jam/dev/ultimate/saltynx/arc_mod_installer/../libnx_min/nx//lib/libnx_min.a(apm.o)
 .debug_aranges
                0x0000000000000000       0x80 /home/jam/dev/ultimate/saltynx/arc_mod_installer/../libnx_min/nx//lib/libnx_min.a(apm.o)
 .debug_ranges  0x0000000000000000      0x630 /home/jam/dev/ultimate/saltynx/arc_mod_installer/../libnx_min/nx//lib/libnx_min.a(apm.o)
 .debug_line    0x0000000000000000      0xbf3 /home/jam/dev/ultimate/saltynx/arc_mod_installer/../libnx_min/nx//lib/libnx_min.a(apm.o)
 .debug_str     0x0000000000000000      0x9ea /home/jam/dev/ultimate/saltynx/arc_mod_installer/../libnx_min/nx//lib/libnx_min.a(apm.o)
 .comment       0x0000000000000000       0x23 /home/jam/dev/ultimate/saltynx/arc_mod_installer/../libnx_min/nx//lib/libnx_min.a(apm.o)
 .text          0x0000000000000000        0x0 /home/jam/dev/ultimate/saltynx/arc_mod_installer/../libnx_min/nx//lib/libnx_min.a(fatal.o)
 .data          0x0000000000000000        0x0 /home/jam/dev/ultimate/saltynx/arc_mod_installer/../libnx_min/nx//lib/libnx_min.a(fatal.o)
 .bss           0x0000000000000000        0x0 /home/jam/dev/ultimate/saltynx/arc_mod_installer/../libnx_min/nx//lib/libnx_min.a(fatal.o)
 .debug_info    0x0000000000000000      0xd6e /home/jam/dev/ultimate/saltynx/arc_mod_installer/../libnx_min/nx//lib/libnx_min.a(fatal.o)
 .debug_abbrev  0x0000000000000000      0x393 /home/jam/dev/ultimate/saltynx/arc_mod_installer/../libnx_min/nx//lib/libnx_min.a(fatal.o)
 .debug_loc     0x0000000000000000      0x895 /home/jam/dev/ultimate/saltynx/arc_mod_installer/../libnx_min/nx//lib/libnx_min.a(fatal.o)
 .debug_aranges
                0x0000000000000000       0x60 /home/jam/dev/ultimate/saltynx/arc_mod_installer/../libnx_min/nx//lib/libnx_min.a(fatal.o)
 .debug_ranges  0x0000000000000000      0x240 /home/jam/dev/ultimate/saltynx/arc_mod_installer/../libnx_min/nx//lib/libnx_min.a(fatal.o)
 .debug_line    0x0000000000000000      0x59d /home/jam/dev/ultimate/saltynx/arc_mod_installer/../libnx_min/nx//lib/libnx_min.a(fatal.o)
 .debug_str     0x0000000000000000      0x72b /home/jam/dev/ultimate/saltynx/arc_mod_installer/../libnx_min/nx//lib/libnx_min.a(fatal.o)
 .comment       0x0000000000000000       0x23 /home/jam/dev/ultimate/saltynx/arc_mod_installer/../libnx_min/nx//lib/libnx_min.a(fatal.o)
 .text          0x0000000000000000        0x0 /home/jam/dev/ultimate/saltynx/arc_mod_installer/../libnx_min/nx//lib/libnx_min.a(set.o)
 .data          0x0000000000000000        0x0 /home/jam/dev/ultimate/saltynx/arc_mod_installer/../libnx_min/nx//lib/libnx_min.a(set.o)
 .bss           0x0000000000000000        0x0 /home/jam/dev/ultimate/saltynx/arc_mod_installer/../libnx_min/nx//lib/libnx_min.a(set.o)
 .debug_info    0x0000000000000000     0x692b /home/jam/dev/ultimate/saltynx/arc_mod_installer/../libnx_min/nx//lib/libnx_min.a(set.o)
 .debug_abbrev  0x0000000000000000      0x5eb /home/jam/dev/ultimate/saltynx/arc_mod_installer/../libnx_min/nx//lib/libnx_min.a(set.o)
 .debug_loc     0x0000000000000000     0xc88f /home/jam/dev/ultimate/saltynx/arc_mod_installer/../libnx_min/nx//lib/libnx_min.a(set.o)
 .debug_aranges
                0x0000000000000000      0x1d0 /home/jam/dev/ultimate/saltynx/arc_mod_installer/../libnx_min/nx//lib/libnx_min.a(set.o)
 .debug_ranges  0x0000000000000000     0x25f0 /home/jam/dev/ultimate/saltynx/arc_mod_installer/../libnx_min/nx//lib/libnx_min.a(set.o)
 .debug_line    0x0000000000000000     0x3150 /home/jam/dev/ultimate/saltynx/arc_mod_installer/../libnx_min/nx//lib/libnx_min.a(set.o)
 .debug_str     0x0000000000000000     0x1aeb /home/jam/dev/ultimate/saltynx/arc_mod_installer/../libnx_min/nx//lib/libnx_min.a(set.o)
 .comment       0x0000000000000000       0x23 /home/jam/dev/ultimate/saltynx/arc_mod_installer/../libnx_min/nx//lib/libnx_min.a(set.o)
 .text          0x0000000000000000        0x0 /home/jam/dev/ultimate/saltynx/arc_mod_installer/../libnx_min/nx//lib/libnx_min.a(fs.o)
 .data          0x0000000000000000        0x0 /home/jam/dev/ultimate/saltynx/arc_mod_installer/../libnx_min/nx//lib/libnx_min.a(fs.o)
 .bss           0x0000000000000000        0x0 /home/jam/dev/ultimate/saltynx/arc_mod_installer/../libnx_min/nx//lib/libnx_min.a(fs.o)
 .debug_info    0x0000000000000000    0x148db /home/jam/dev/ultimate/saltynx/arc_mod_installer/../libnx_min/nx//lib/libnx_min.a(fs.o)
 .debug_abbrev  0x0000000000000000      0x6cd /home/jam/dev/ultimate/saltynx/arc_mod_installer/../libnx_min/nx//lib/libnx_min.a(fs.o)
 .debug_loc     0x0000000000000000    0x23e9b /home/jam/dev/ultimate/saltynx/arc_mod_installer/../libnx_min/nx//lib/libnx_min.a(fs.o)
 .debug_aranges
                0x0000000000000000      0x4a0 /home/jam/dev/ultimate/saltynx/arc_mod_installer/../libnx_min/nx//lib/libnx_min.a(fs.o)
 .debug_ranges  0x0000000000000000     0xb5b0 /home/jam/dev/ultimate/saltynx/arc_mod_installer/../libnx_min/nx//lib/libnx_min.a(fs.o)
 .debug_line    0x0000000000000000     0xb203 /home/jam/dev/ultimate/saltynx/arc_mod_installer/../libnx_min/nx//lib/libnx_min.a(fs.o)
 .debug_str     0x0000000000000000     0x23ae /home/jam/dev/ultimate/saltynx/arc_mod_installer/../libnx_min/nx//lib/libnx_min.a(fs.o)
 .comment       0x0000000000000000       0x23 /home/jam/dev/ultimate/saltynx/arc_mod_installer/../libnx_min/nx//lib/libnx_min.a(fs.o)
 .text          0x0000000000000000        0x0 /home/jam/dev/ultimate/saltynx/arc_mod_installer/../libnx_min/nx//lib/libnx_min.a(hosversion.o)
 .data          0x0000000000000000        0x0 /home/jam/dev/ultimate/saltynx/arc_mod_installer/../libnx_min/nx//lib/libnx_min.a(hosversion.o)
 .bss           0x0000000000000000        0x0 /home/jam/dev/ultimate/saltynx/arc_mod_installer/../libnx_min/nx//lib/libnx_min.a(hosversion.o)
 .debug_info    0x0000000000000000      0x103 /home/jam/dev/ultimate/saltynx/arc_mod_installer/../libnx_min/nx//lib/libnx_min.a(hosversion.o)
 .debug_abbrev  0x0000000000000000       0xa2 /home/jam/dev/ultimate/saltynx/arc_mod_installer/../libnx_min/nx//lib/libnx_min.a(hosversion.o)
 .debug_aranges
                0x0000000000000000       0x40 /home/jam/dev/ultimate/saltynx/arc_mod_installer/../libnx_min/nx//lib/libnx_min.a(hosversion.o)
 .debug_ranges  0x0000000000000000       0x30 /home/jam/dev/ultimate/saltynx/arc_mod_installer/../libnx_min/nx//lib/libnx_min.a(hosversion.o)
 .debug_line    0x0000000000000000      0x187 /home/jam/dev/ultimate/saltynx/arc_mod_installer/../libnx_min/nx//lib/libnx_min.a(hosversion.o)
 .debug_str     0x0000000000000000      0x1fc /home/jam/dev/ultimate/saltynx/arc_mod_installer/../libnx_min/nx//lib/libnx_min.a(hosversion.o)
 .comment       0x0000000000000000       0x23 /home/jam/dev/ultimate/saltynx/arc_mod_installer/../libnx_min/nx//lib/libnx_min.a(hosversion.o)
 .text          0x0000000000000000        0x0 /home/jam/dev/ultimate/saltynx/arc_mod_installer/../libnx_min/nx//lib/libnx_min.a(detect.o)
 .data          0x0000000000000000        0x0 /home/jam/dev/ultimate/saltynx/arc_mod_installer/../libnx_min/nx//lib/libnx_min.a(detect.o)
 .bss           0x0000000000000000        0x0 /home/jam/dev/ultimate/saltynx/arc_mod_installer/../libnx_min/nx//lib/libnx_min.a(detect.o)
 .debug_info    0x0000000000000000     0x103a /home/jam/dev/ultimate/saltynx/arc_mod_installer/../libnx_min/nx//lib/libnx_min.a(detect.o)
 .debug_abbrev  0x0000000000000000      0x31e /home/jam/dev/ultimate/saltynx/arc_mod_installer/../libnx_min/nx//lib/libnx_min.a(detect.o)
 .debug_loc     0x0000000000000000       0xb3 /home/jam/dev/ultimate/saltynx/arc_mod_installer/../libnx_min/nx//lib/libnx_min.a(detect.o)
 .debug_aranges
                0x0000000000000000       0x60 /home/jam/dev/ultimate/saltynx/arc_mod_installer/../libnx_min/nx//lib/libnx_min.a(detect.o)
 .debug_ranges  0x0000000000000000      0x130 /home/jam/dev/ultimate/saltynx/arc_mod_installer/../libnx_min/nx//lib/libnx_min.a(detect.o)
 .debug_line    0x0000000000000000      0x442 /home/jam/dev/ultimate/saltynx/arc_mod_installer/../libnx_min/nx//lib/libnx_min.a(detect.o)
 .debug_str     0x0000000000000000      0xe6f /home/jam/dev/ultimate/saltynx/arc_mod_installer/../libnx_min/nx//lib/libnx_min.a(detect.o)
 .comment       0x0000000000000000       0x23 /home/jam/dev/ultimate/saltynx/arc_mod_installer/../libnx_min/nx//lib/libnx_min.a(detect.o)
 .text          0x0000000000000000        0x0 /home/jam/dev/ultimate/saltynx/arc_mod_installer/../libnx_min/nx//lib/libnx_min.a(shmem.o)
 .data          0x0000000000000000        0x0 /home/jam/dev/ultimate/saltynx/arc_mod_installer/../libnx_min/nx//lib/libnx_min.a(shmem.o)
 .bss           0x0000000000000000        0x0 /home/jam/dev/ultimate/saltynx/arc_mod_installer/../libnx_min/nx//lib/libnx_min.a(shmem.o)
 .debug_info    0x0000000000000000      0xe91 /home/jam/dev/ultimate/saltynx/arc_mod_installer/../libnx_min/nx//lib/libnx_min.a(shmem.o)
 .debug_abbrev  0x0000000000000000      0x377 /home/jam/dev/ultimate/saltynx/arc_mod_installer/../libnx_min/nx//lib/libnx_min.a(shmem.o)
 .debug_loc     0x0000000000000000      0x442 /home/jam/dev/ultimate/saltynx/arc_mod_installer/../libnx_min/nx//lib/libnx_min.a(shmem.o)
 .debug_aranges
                0x0000000000000000       0x70 /home/jam/dev/ultimate/saltynx/arc_mod_installer/../libnx_min/nx//lib/libnx_min.a(shmem.o)
 .debug_ranges  0x0000000000000000       0xe0 /home/jam/dev/ultimate/saltynx/arc_mod_installer/../libnx_min/nx//lib/libnx_min.a(shmem.o)
 .debug_line    0x0000000000000000      0x3b3 /home/jam/dev/ultimate/saltynx/arc_mod_installer/../libnx_min/nx//lib/libnx_min.a(shmem.o)
 .debug_str     0x0000000000000000      0xc62 /home/jam/dev/ultimate/saltynx/arc_mod_installer/../libnx_min/nx//lib/libnx_min.a(shmem.o)
 .comment       0x0000000000000000       0x23 /home/jam/dev/ultimate/saltynx/arc_mod_installer/../libnx_min/nx//lib/libnx_min.a(shmem.o)
 .text          0x0000000000000000        0x0 /home/jam/dev/ultimate/saltynx/arc_mod_installer/../libnx_min/nx//lib/libnx_min.a(wait.o)
 .data          0x0000000000000000        0x0 /home/jam/dev/ultimate/saltynx/arc_mod_installer/../libnx_min/nx//lib/libnx_min.a(wait.o)
 .bss           0x0000000000000000        0x0 /home/jam/dev/ultimate/saltynx/arc_mod_installer/../libnx_min/nx//lib/libnx_min.a(wait.o)
 .debug_info    0x0000000000000000      0xe46 /home/jam/dev/ultimate/saltynx/arc_mod_installer/../libnx_min/nx//lib/libnx_min.a(wait.o)
 .debug_abbrev  0x0000000000000000      0x35d /home/jam/dev/ultimate/saltynx/arc_mod_installer/../libnx_min/nx//lib/libnx_min.a(wait.o)
 .debug_loc     0x0000000000000000      0xeb6 /home/jam/dev/ultimate/saltynx/arc_mod_installer/../libnx_min/nx//lib/libnx_min.a(wait.o)
 .debug_aranges
                0x0000000000000000       0x60 /home/jam/dev/ultimate/saltynx/arc_mod_installer/../libnx_min/nx//lib/libnx_min.a(wait.o)
 .debug_ranges  0x0000000000000000      0x290 /home/jam/dev/ultimate/saltynx/arc_mod_installer/../libnx_min/nx//lib/libnx_min.a(wait.o)
 .debug_line    0x0000000000000000      0x735 /home/jam/dev/ultimate/saltynx/arc_mod_installer/../libnx_min/nx//lib/libnx_min.a(wait.o)
 .debug_str     0x0000000000000000      0x9cf /home/jam/dev/ultimate/saltynx/arc_mod_installer/../libnx_min/nx//lib/libnx_min.a(wait.o)
 .comment       0x0000000000000000       0x23 /home/jam/dev/ultimate/saltynx/arc_mod_installer/../libnx_min/nx//lib/libnx_min.a(wait.o)
 .text          0x0000000000000000        0x0 /home/jam/dev/ultimate/saltynx/arc_mod_installer/../libnx_min/nx//lib/libnx_min.a(rwlock.o)
 .data          0x0000000000000000        0x0 /home/jam/dev/ultimate/saltynx/arc_mod_installer/../libnx_min/nx//lib/libnx_min.a(rwlock.o)
 .bss           0x0000000000000000        0x0 /home/jam/dev/ultimate/saltynx/arc_mod_installer/../libnx_min/nx//lib/libnx_min.a(rwlock.o)
 .debug_info    0x0000000000000000      0x659 /home/jam/dev/ultimate/saltynx/arc_mod_installer/../libnx_min/nx//lib/libnx_min.a(rwlock.o)
 .debug_abbrev  0x0000000000000000      0x1cc /home/jam/dev/ultimate/saltynx/arc_mod_installer/../libnx_min/nx//lib/libnx_min.a(rwlock.o)
 .debug_loc     0x0000000000000000      0x4ab /home/jam/dev/ultimate/saltynx/arc_mod_installer/../libnx_min/nx//lib/libnx_min.a(rwlock.o)
 .debug_aranges
                0x0000000000000000       0x70 /home/jam/dev/ultimate/saltynx/arc_mod_installer/../libnx_min/nx//lib/libnx_min.a(rwlock.o)
 .debug_ranges  0x0000000000000000      0x130 /home/jam/dev/ultimate/saltynx/arc_mod_installer/../libnx_min/nx//lib/libnx_min.a(rwlock.o)
 .debug_line    0x0000000000000000      0x44f /home/jam/dev/ultimate/saltynx/arc_mod_installer/../libnx_min/nx//lib/libnx_min.a(rwlock.o)
 .debug_str     0x0000000000000000      0x30e /home/jam/dev/ultimate/saltynx/arc_mod_installer/../libnx_min/nx//lib/libnx_min.a(rwlock.o)
 .comment       0x0000000000000000       0x23 /home/jam/dev/ultimate/saltynx/arc_mod_installer/../libnx_min/nx//lib/libnx_min.a(rwlock.o)
 .text          0x0000000000000000        0x0 /home/jam/dev/ultimate/saltynx/arc_mod_installer/../libnx_min/nx//lib/libnx_min.a(tmem.o)
 .data          0x0000000000000000        0x0 /home/jam/dev/ultimate/saltynx/arc_mod_installer/../libnx_min/nx//lib/libnx_min.a(tmem.o)
 .bss           0x0000000000000000        0x0 /home/jam/dev/ultimate/saltynx/arc_mod_installer/../libnx_min/nx//lib/libnx_min.a(tmem.o)
 .debug_info    0x0000000000000000     0x100a /home/jam/dev/ultimate/saltynx/arc_mod_installer/../libnx_min/nx//lib/libnx_min.a(tmem.o)
 .debug_abbrev  0x0000000000000000      0x3a2 /home/jam/dev/ultimate/saltynx/arc_mod_installer/../libnx_min/nx//lib/libnx_min.a(tmem.o)
 .debug_loc     0x0000000000000000      0x6e2 /home/jam/dev/ultimate/saltynx/arc_mod_installer/../libnx_min/nx//lib/libnx_min.a(tmem.o)
 .debug_aranges
                0x0000000000000000       0x80 /home/jam/dev/ultimate/saltynx/arc_mod_installer/../libnx_min/nx//lib/libnx_min.a(tmem.o)
 .debug_ranges  0x0000000000000000       0xf0 /home/jam/dev/ultimate/saltynx/arc_mod_installer/../libnx_min/nx//lib/libnx_min.a(tmem.o)
 .debug_line    0x0000000000000000      0x4bb /home/jam/dev/ultimate/saltynx/arc_mod_installer/../libnx_min/nx//lib/libnx_min.a(tmem.o)
 .debug_str     0x0000000000000000      0xd17 /home/jam/dev/ultimate/saltynx/arc_mod_installer/../libnx_min/nx//lib/libnx_min.a(tmem.o)
 .comment       0x0000000000000000       0x23 /home/jam/dev/ultimate/saltynx/arc_mod_installer/../libnx_min/nx//lib/libnx_min.a(tmem.o)
 .text          0x0000000000000000        0x0 /home/jam/dev/ultimate/saltynx/arc_mod_installer/../libnx_min/nx//lib/libnx_min.a(event.o)
 .data          0x0000000000000000        0x0 /home/jam/dev/ultimate/saltynx/arc_mod_installer/../libnx_min/nx//lib/libnx_min.a(event.o)
 .bss           0x0000000000000000        0x0 /home/jam/dev/ultimate/saltynx/arc_mod_installer/../libnx_min/nx//lib/libnx_min.a(event.o)
 .debug_info    0x0000000000000000      0x702 /home/jam/dev/ultimate/saltynx/arc_mod_installer/../libnx_min/nx//lib/libnx_min.a(event.o)
 .debug_abbrev  0x0000000000000000      0x28b /home/jam/dev/ultimate/saltynx/arc_mod_installer/../libnx_min/nx//lib/libnx_min.a(event.o)
 .debug_loc     0x0000000000000000      0x2e3 /home/jam/dev/ultimate/saltynx/arc_mod_installer/../libnx_min/nx//lib/libnx_min.a(event.o)
 .debug_aranges
                0x0000000000000000       0x80 /home/jam/dev/ultimate/saltynx/arc_mod_installer/../libnx_min/nx//lib/libnx_min.a(event.o)
 .debug_ranges  0x0000000000000000       0xe0 /home/jam/dev/ultimate/saltynx/arc_mod_installer/../libnx_min/nx//lib/libnx_min.a(event.o)
 .debug_line    0x0000000000000000      0x359 /home/jam/dev/ultimate/saltynx/arc_mod_installer/../libnx_min/nx//lib/libnx_min.a(event.o)
 .debug_str     0x0000000000000000      0x918 /home/jam/dev/ultimate/saltynx/arc_mod_installer/../libnx_min/nx//lib/libnx_min.a(event.o)
 .comment       0x0000000000000000       0x23 /home/jam/dev/ultimate/saltynx/arc_mod_installer/../libnx_min/nx//lib/libnx_min.a(event.o)
 .text          0x0000000000000000        0x0 /opt/devkitpro/devkitA64/lib/gcc/aarch64-none-elf/8.3.0/../../../../aarch64-none-elf/lib/pic/libg.a(lib_a-bsearch.o)
 .data          0x0000000000000000        0x0 /opt/devkitpro/devkitA64/lib/gcc/aarch64-none-elf/8.3.0/../../../../aarch64-none-elf/lib/pic/libg.a(lib_a-bsearch.o)
 .bss           0x0000000000000000        0x0 /opt/devkitpro/devkitA64/lib/gcc/aarch64-none-elf/8.3.0/../../../../aarch64-none-elf/lib/pic/libg.a(lib_a-bsearch.o)
 .comment       0x0000000000000000       0x23 /opt/devkitpro/devkitA64/lib/gcc/aarch64-none-elf/8.3.0/../../../../aarch64-none-elf/lib/pic/libg.a(lib_a-bsearch.o)
 .text          0x0000000000000000        0x0 /opt/devkitpro/devkitA64/lib/gcc/aarch64-none-elf/8.3.0/../../../../aarch64-none-elf/lib/pic/libg.a(lib_a-ctype_.o)
 .data          0x0000000000000000        0x0 /opt/devkitpro/devkitA64/lib/gcc/aarch64-none-elf/8.3.0/../../../../aarch64-none-elf/lib/pic/libg.a(lib_a-ctype_.o)
 .bss           0x0000000000000000        0x0 /opt/devkitpro/devkitA64/lib/gcc/aarch64-none-elf/8.3.0/../../../../aarch64-none-elf/lib/pic/libg.a(lib_a-ctype_.o)
 .comment       0x0000000000000000       0x23 /opt/devkitpro/devkitA64/lib/gcc/aarch64-none-elf/8.3.0/../../../../aarch64-none-elf/lib/pic/libg.a(lib_a-ctype_.o)
 .text          0x0000000000000000        0x0 /opt/devkitpro/devkitA64/lib/gcc/aarch64-none-elf/8.3.0/../../../../aarch64-none-elf/lib/pic/libg.a(lib_a-errno.o)
 .data          0x0000000000000000        0x0 /opt/devkitpro/devkitA64/lib/gcc/aarch64-none-elf/8.3.0/../../../../aarch64-none-elf/lib/pic/libg.a(lib_a-errno.o)
 .bss           0x0000000000000000        0x0 /opt/devkitpro/devkitA64/lib/gcc/aarch64-none-elf/8.3.0/../../../../aarch64-none-elf/lib/pic/libg.a(lib_a-errno.o)
 .comment       0x0000000000000000       0x23 /opt/devkitpro/devkitA64/lib/gcc/aarch64-none-elf/8.3.0/../../../../aarch64-none-elf/lib/pic/libg.a(lib_a-errno.o)
 .text          0x0000000000000000        0x0 /opt/devkitpro/devkitA64/lib/gcc/aarch64-none-elf/8.3.0/../../../../aarch64-none-elf/lib/pic/libg.a(lib_a-exit.o)
 .data          0x0000000000000000        0x0 /opt/devkitpro/devkitA64/lib/gcc/aarch64-none-elf/8.3.0/../../../../aarch64-none-elf/lib/pic/libg.a(lib_a-exit.o)
 .bss           0x0000000000000000        0x0 /opt/devkitpro/devkitA64/lib/gcc/aarch64-none-elf/8.3.0/../../../../aarch64-none-elf/lib/pic/libg.a(lib_a-exit.o)
 .comment       0x0000000000000000       0x23 /opt/devkitpro/devkitA64/lib/gcc/aarch64-none-elf/8.3.0/../../../../aarch64-none-elf/lib/pic/libg.a(lib_a-exit.o)
 .text          0x0000000000000000        0x0 /opt/devkitpro/devkitA64/lib/gcc/aarch64-none-elf/8.3.0/../../../../aarch64-none-elf/lib/pic/libg.a(lib_a-fini.o)
 .data          0x0000000000000000        0x0 /opt/devkitpro/devkitA64/lib/gcc/aarch64-none-elf/8.3.0/../../../../aarch64-none-elf/lib/pic/libg.a(lib_a-fini.o)
 .bss           0x0000000000000000        0x0 /opt/devkitpro/devkitA64/lib/gcc/aarch64-none-elf/8.3.0/../../../../aarch64-none-elf/lib/pic/libg.a(lib_a-fini.o)
 .comment       0x0000000000000000       0x23 /opt/devkitpro/devkitA64/lib/gcc/aarch64-none-elf/8.3.0/../../../../aarch64-none-elf/lib/pic/libg.a(lib_a-fini.o)
 .text          0x0000000000000000        0x0 /opt/devkitpro/devkitA64/lib/gcc/aarch64-none-elf/8.3.0/../../../../aarch64-none-elf/lib/pic/libg.a(lib_a-impure.o)
 .data          0x0000000000000000        0x0 /opt/devkitpro/devkitA64/lib/gcc/aarch64-none-elf/8.3.0/../../../../aarch64-none-elf/lib/pic/libg.a(lib_a-impure.o)
 .bss           0x0000000000000000        0x0 /opt/devkitpro/devkitA64/lib/gcc/aarch64-none-elf/8.3.0/../../../../aarch64-none-elf/lib/pic/libg.a(lib_a-impure.o)
 .comment       0x0000000000000000       0x23 /opt/devkitpro/devkitA64/lib/gcc/aarch64-none-elf/8.3.0/../../../../aarch64-none-elf/lib/pic/libg.a(lib_a-impure.o)
 .text          0x0000000000000000        0x0 /opt/devkitpro/devkitA64/lib/gcc/aarch64-none-elf/8.3.0/../../../../aarch64-none-elf/lib/pic/libg.a(lib_a-init.o)
 .data          0x0000000000000000        0x0 /opt/devkitpro/devkitA64/lib/gcc/aarch64-none-elf/8.3.0/../../../../aarch64-none-elf/lib/pic/libg.a(lib_a-init.o)
 .bss           0x0000000000000000        0x0 /opt/devkitpro/devkitA64/lib/gcc/aarch64-none-elf/8.3.0/../../../../aarch64-none-elf/lib/pic/libg.a(lib_a-init.o)
 .comment       0x0000000000000000       0x23 /opt/devkitpro/devkitA64/lib/gcc/aarch64-none-elf/8.3.0/../../../../aarch64-none-elf/lib/pic/libg.a(lib_a-init.o)
 .text          0x0000000000000000        0x0 /opt/devkitpro/devkitA64/lib/gcc/aarch64-none-elf/8.3.0/../../../../aarch64-none-elf/lib/pic/libg.a(lib_a-malign.o)
 .data          0x0000000000000000        0x0 /opt/devkitpro/devkitA64/lib/gcc/aarch64-none-elf/8.3.0/../../../../aarch64-none-elf/lib/pic/libg.a(lib_a-malign.o)
 .bss           0x0000000000000000        0x0 /opt/devkitpro/devkitA64/lib/gcc/aarch64-none-elf/8.3.0/../../../../aarch64-none-elf/lib/pic/libg.a(lib_a-malign.o)
 .comment       0x0000000000000000       0x23 /opt/devkitpro/devkitA64/lib/gcc/aarch64-none-elf/8.3.0/../../../../aarch64-none-elf/lib/pic/libg.a(lib_a-malign.o)
 .text          0x0000000000000000        0x0 /opt/devkitpro/devkitA64/lib/gcc/aarch64-none-elf/8.3.0/../../../../aarch64-none-elf/lib/pic/libg.a(lib_a-malignr.o)
 .data          0x0000000000000000        0x0 /opt/devkitpro/devkitA64/lib/gcc/aarch64-none-elf/8.3.0/../../../../aarch64-none-elf/lib/pic/libg.a(lib_a-malignr.o)
 .bss           0x0000000000000000        0x0 /opt/devkitpro/devkitA64/lib/gcc/aarch64-none-elf/8.3.0/../../../../aarch64-none-elf/lib/pic/libg.a(lib_a-malignr.o)
 .comment       0x0000000000000000       0x23 /opt/devkitpro/devkitA64/lib/gcc/aarch64-none-elf/8.3.0/../../../../aarch64-none-elf/lib/pic/libg.a(lib_a-malignr.o)
 .text          0x0000000000000000        0x0 /opt/devkitpro/devkitA64/lib/gcc/aarch64-none-elf/8.3.0/../../../../aarch64-none-elf/lib/pic/libg.a(lib_a-malloc.o)
 .data          0x0000000000000000        0x0 /opt/devkitpro/devkitA64/lib/gcc/aarch64-none-elf/8.3.0/../../../../aarch64-none-elf/lib/pic/libg.a(lib_a-malloc.o)
 .bss           0x0000000000000000        0x0 /opt/devkitpro/devkitA64/lib/gcc/aarch64-none-elf/8.3.0/../../../../aarch64-none-elf/lib/pic/libg.a(lib_a-malloc.o)
 .comment       0x0000000000000000       0x23 /opt/devkitpro/devkitA64/lib/gcc/aarch64-none-elf/8.3.0/../../../../aarch64-none-elf/lib/pic/libg.a(lib_a-malloc.o)
 .text          0x0000000000000000        0x0 /opt/devkitpro/devkitA64/lib/gcc/aarch64-none-elf/8.3.0/../../../../aarch64-none-elf/lib/pic/libg.a(lib_a-mallocr.o)
 .data          0x0000000000000000        0x0 /opt/devkitpro/devkitA64/lib/gcc/aarch64-none-elf/8.3.0/../../../../aarch64-none-elf/lib/pic/libg.a(lib_a-mallocr.o)
 .bss           0x0000000000000000        0x0 /opt/devkitpro/devkitA64/lib/gcc/aarch64-none-elf/8.3.0/../../../../aarch64-none-elf/lib/pic/libg.a(lib_a-mallocr.o)
 .comment       0x0000000000000000       0x23 /opt/devkitpro/devkitA64/lib/gcc/aarch64-none-elf/8.3.0/../../../../aarch64-none-elf/lib/pic/libg.a(lib_a-mallocr.o)
 .data          0x0000000000000000        0x0 /opt/devkitpro/devkitA64/lib/gcc/aarch64-none-elf/8.3.0/../../../../aarch64-none-elf/lib/pic/libg.a(lib_a-memcpy.o)
 .bss           0x0000000000000000        0x0 /opt/devkitpro/devkitA64/lib/gcc/aarch64-none-elf/8.3.0/../../../../aarch64-none-elf/lib/pic/libg.a(lib_a-memcpy.o)
 .data          0x0000000000000000        0x0 /opt/devkitpro/devkitA64/lib/gcc/aarch64-none-elf/8.3.0/../../../../aarch64-none-elf/lib/pic/libg.a(lib_a-memset.o)
 .bss           0x0000000000000000        0x0 /opt/devkitpro/devkitA64/lib/gcc/aarch64-none-elf/8.3.0/../../../../aarch64-none-elf/lib/pic/libg.a(lib_a-memset.o)
 .text          0x0000000000000000        0x0 /opt/devkitpro/devkitA64/lib/gcc/aarch64-none-elf/8.3.0/../../../../aarch64-none-elf/lib/pic/libg.a(lib_a-mlock.o)
 .data          0x0000000000000000        0x0 /opt/devkitpro/devkitA64/lib/gcc/aarch64-none-elf/8.3.0/../../../../aarch64-none-elf/lib/pic/libg.a(lib_a-mlock.o)
 .bss           0x0000000000000000        0x0 /opt/devkitpro/devkitA64/lib/gcc/aarch64-none-elf/8.3.0/../../../../aarch64-none-elf/lib/pic/libg.a(lib_a-mlock.o)
 .comment       0x0000000000000000       0x23 /opt/devkitpro/devkitA64/lib/gcc/aarch64-none-elf/8.3.0/../../../../aarch64-none-elf/lib/pic/libg.a(lib_a-mlock.o)
 .text          0x0000000000000000        0x0 /opt/devkitpro/devkitA64/lib/gcc/aarch64-none-elf/8.3.0/../../../../aarch64-none-elf/lib/pic/libg.a(lib_a-setenv.o)
 .data          0x0000000000000000        0x0 /opt/devkitpro/devkitA64/lib/gcc/aarch64-none-elf/8.3.0/../../../../aarch64-none-elf/lib/pic/libg.a(lib_a-setenv.o)
 .bss           0x0000000000000000        0x0 /opt/devkitpro/devkitA64/lib/gcc/aarch64-none-elf/8.3.0/../../../../aarch64-none-elf/lib/pic/libg.a(lib_a-setenv.o)
 .comment       0x0000000000000000       0x23 /opt/devkitpro/devkitA64/lib/gcc/aarch64-none-elf/8.3.0/../../../../aarch64-none-elf/lib/pic/libg.a(lib_a-setenv.o)
 .text          0x0000000000000000        0x0 /opt/devkitpro/devkitA64/lib/gcc/aarch64-none-elf/8.3.0/../../../../aarch64-none-elf/lib/pic/libg.a(lib_a-setenv_r.o)
 .data          0x0000000000000000        0x0 /opt/devkitpro/devkitA64/lib/gcc/aarch64-none-elf/8.3.0/../../../../aarch64-none-elf/lib/pic/libg.a(lib_a-setenv_r.o)
 .bss           0x0000000000000000        0x0 /opt/devkitpro/devkitA64/lib/gcc/aarch64-none-elf/8.3.0/../../../../aarch64-none-elf/lib/pic/libg.a(lib_a-setenv_r.o)
 .comment       0x0000000000000000       0x23 /opt/devkitpro/devkitA64/lib/gcc/aarch64-none-elf/8.3.0/../../../../aarch64-none-elf/lib/pic/libg.a(lib_a-setenv_r.o)
 .text          0x0000000000000000        0x0 /opt/devkitpro/devkitA64/lib/gcc/aarch64-none-elf/8.3.0/../../../../aarch64-none-elf/lib/pic/libg.a(lib_a-snprintf.o)
 .data          0x0000000000000000        0x0 /opt/devkitpro/devkitA64/lib/gcc/aarch64-none-elf/8.3.0/../../../../aarch64-none-elf/lib/pic/libg.a(lib_a-snprintf.o)
 .bss           0x0000000000000000        0x0 /opt/devkitpro/devkitA64/lib/gcc/aarch64-none-elf/8.3.0/../../../../aarch64-none-elf/lib/pic/libg.a(lib_a-snprintf.o)
 .comment       0x0000000000000000       0x23 /opt/devkitpro/devkitA64/lib/gcc/aarch64-none-elf/8.3.0/../../../../aarch64-none-elf/lib/pic/libg.a(lib_a-snprintf.o)
 .data          0x0000000000000000        0x0 /opt/devkitpro/devkitA64/lib/gcc/aarch64-none-elf/8.3.0/../../../../aarch64-none-elf/lib/pic/libg.a(lib_a-strchr.o)
 .bss           0x0000000000000000        0x0 /opt/devkitpro/devkitA64/lib/gcc/aarch64-none-elf/8.3.0/../../../../aarch64-none-elf/lib/pic/libg.a(lib_a-strchr.o)
 .data          0x0000000000000000        0x0 /opt/devkitpro/devkitA64/lib/gcc/aarch64-none-elf/8.3.0/../../../../aarch64-none-elf/lib/pic/libg.a(lib_a-strcpy.o)
 .bss           0x0000000000000000        0x0 /opt/devkitpro/devkitA64/lib/gcc/aarch64-none-elf/8.3.0/../../../../aarch64-none-elf/lib/pic/libg.a(lib_a-strcpy.o)
 .data          0x0000000000000000        0x0 /opt/devkitpro/devkitA64/lib/gcc/aarch64-none-elf/8.3.0/../../../../aarch64-none-elf/lib/pic/libg.a(lib_a-strlen.o)
 .bss           0x0000000000000000        0x0 /opt/devkitpro/devkitA64/lib/gcc/aarch64-none-elf/8.3.0/../../../../aarch64-none-elf/lib/pic/libg.a(lib_a-strlen.o)
 .text          0x0000000000000000        0x0 /opt/devkitpro/devkitA64/lib/gcc/aarch64-none-elf/8.3.0/../../../../aarch64-none-elf/lib/pic/libg.a(lib_a-strncat.o)
 .data          0x0000000000000000        0x0 /opt/devkitpro/devkitA64/lib/gcc/aarch64-none-elf/8.3.0/../../../../aarch64-none-elf/lib/pic/libg.a(lib_a-strncat.o)
 .bss           0x0000000000000000        0x0 /opt/devkitpro/devkitA64/lib/gcc/aarch64-none-elf/8.3.0/../../../../aarch64-none-elf/lib/pic/libg.a(lib_a-strncat.o)
 .comment       0x0000000000000000       0x23 /opt/devkitpro/devkitA64/lib/gcc/aarch64-none-elf/8.3.0/../../../../aarch64-none-elf/lib/pic/libg.a(lib_a-strncat.o)
 .data          0x0000000000000000        0x0 /opt/devkitpro/devkitA64/lib/gcc/aarch64-none-elf/8.3.0/../../../../aarch64-none-elf/lib/pic/libg.a(lib_a-strncmp.o)
 .bss           0x0000000000000000        0x0 /opt/devkitpro/devkitA64/lib/gcc/aarch64-none-elf/8.3.0/../../../../aarch64-none-elf/lib/pic/libg.a(lib_a-strncmp.o)
 .text          0x0000000000000000        0x0 /opt/devkitpro/devkitA64/lib/gcc/aarch64-none-elf/8.3.0/../../../../aarch64-none-elf/lib/pic/libg.a(lib_a-strncpy.o)
 .data          0x0000000000000000        0x0 /opt/devkitpro/devkitA64/lib/gcc/aarch64-none-elf/8.3.0/../../../../aarch64-none-elf/lib/pic/libg.a(lib_a-strncpy.o)
 .bss           0x0000000000000000        0x0 /opt/devkitpro/devkitA64/lib/gcc/aarch64-none-elf/8.3.0/../../../../aarch64-none-elf/lib/pic/libg.a(lib_a-strncpy.o)
 .comment       0x0000000000000000       0x23 /opt/devkitpro/devkitA64/lib/gcc/aarch64-none-elf/8.3.0/../../../../aarch64-none-elf/lib/pic/libg.a(lib_a-strncpy.o)
 .data          0x0000000000000000        0x0 /opt/devkitpro/devkitA64/lib/gcc/aarch64-none-elf/8.3.0/../../../../aarch64-none-elf/lib/pic/libg.a(lib_a-strnlen.o)
 .bss           0x0000000000000000        0x0 /opt/devkitpro/devkitA64/lib/gcc/aarch64-none-elf/8.3.0/../../../../aarch64-none-elf/lib/pic/libg.a(lib_a-strnlen.o)
 .data          0x0000000000000000        0x0 /opt/devkitpro/devkitA64/lib/gcc/aarch64-none-elf/8.3.0/../../../../aarch64-none-elf/lib/pic/libg.a(lib_a-strrchr.o)
 .bss           0x0000000000000000        0x0 /opt/devkitpro/devkitA64/lib/gcc/aarch64-none-elf/8.3.0/../../../../aarch64-none-elf/lib/pic/libg.a(lib_a-strrchr.o)
 .text          0x0000000000000000        0x0 /opt/devkitpro/devkitA64/lib/gcc/aarch64-none-elf/8.3.0/../../../../aarch64-none-elf/lib/pic/libg.a(lib_a-strtol.o)
 .data          0x0000000000000000        0x0 /opt/devkitpro/devkitA64/lib/gcc/aarch64-none-elf/8.3.0/../../../../aarch64-none-elf/lib/pic/libg.a(lib_a-strtol.o)
 .bss           0x0000000000000000        0x0 /opt/devkitpro/devkitA64/lib/gcc/aarch64-none-elf/8.3.0/../../../../aarch64-none-elf/lib/pic/libg.a(lib_a-strtol.o)
 .comment       0x0000000000000000       0x23 /opt/devkitpro/devkitA64/lib/gcc/aarch64-none-elf/8.3.0/../../../../aarch64-none-elf/lib/pic/libg.a(lib_a-strtol.o)
 .text          0x0000000000000000        0x0 /opt/devkitpro/devkitA64/lib/gcc/aarch64-none-elf/8.3.0/../../../../aarch64-none-elf/lib/pic/libg.a(lib_a-svfprintf.o)
 .data          0x0000000000000000        0x0 /opt/devkitpro/devkitA64/lib/gcc/aarch64-none-elf/8.3.0/../../../../aarch64-none-elf/lib/pic/libg.a(lib_a-svfprintf.o)
 .bss           0x0000000000000000        0x0 /opt/devkitpro/devkitA64/lib/gcc/aarch64-none-elf/8.3.0/../../../../aarch64-none-elf/lib/pic/libg.a(lib_a-svfprintf.o)
 .comment       0x0000000000000000       0x23 /opt/devkitpro/devkitA64/lib/gcc/aarch64-none-elf/8.3.0/../../../../aarch64-none-elf/lib/pic/libg.a(lib_a-svfprintf.o)
 .text          0x0000000000000000        0x0 /opt/devkitpro/devkitA64/lib/gcc/aarch64-none-elf/8.3.0/../../../../aarch64-none-elf/lib/pic/libg.a(lib_a-wcrtomb.o)
 .data          0x0000000000000000        0x0 /opt/devkitpro/devkitA64/lib/gcc/aarch64-none-elf/8.3.0/../../../../aarch64-none-elf/lib/pic/libg.a(lib_a-wcrtomb.o)
 .bss           0x0000000000000000        0x0 /opt/devkitpro/devkitA64/lib/gcc/aarch64-none-elf/8.3.0/../../../../aarch64-none-elf/lib/pic/libg.a(lib_a-wcrtomb.o)
 .comment       0x0000000000000000       0x23 /opt/devkitpro/devkitA64/lib/gcc/aarch64-none-elf/8.3.0/../../../../aarch64-none-elf/lib/pic/libg.a(lib_a-wcrtomb.o)
 .text          0x0000000000000000        0x0 /opt/devkitpro/devkitA64/lib/gcc/aarch64-none-elf/8.3.0/../../../../aarch64-none-elf/lib/pic/libg.a(lib_a-wcsrtombs.o)
 .data          0x0000000000000000        0x0 /opt/devkitpro/devkitA64/lib/gcc/aarch64-none-elf/8.3.0/../../../../aarch64-none-elf/lib/pic/libg.a(lib_a-wcsrtombs.o)
 .bss           0x0000000000000000        0x0 /opt/devkitpro/devkitA64/lib/gcc/aarch64-none-elf/8.3.0/../../../../aarch64-none-elf/lib/pic/libg.a(lib_a-wcsrtombs.o)
 .comment       0x0000000000000000       0x23 /opt/devkitpro/devkitA64/lib/gcc/aarch64-none-elf/8.3.0/../../../../aarch64-none-elf/lib/pic/libg.a(lib_a-wcsrtombs.o)
 .text          0x0000000000000000        0x0 /opt/devkitpro/devkitA64/lib/gcc/aarch64-none-elf/8.3.0/../../../../aarch64-none-elf/lib/pic/libg.a(lib_a-__call_atexit.o)
 .data          0x0000000000000000        0x0 /opt/devkitpro/devkitA64/lib/gcc/aarch64-none-elf/8.3.0/../../../../aarch64-none-elf/lib/pic/libg.a(lib_a-__call_atexit.o)
 .bss           0x0000000000000000        0x0 /opt/devkitpro/devkitA64/lib/gcc/aarch64-none-elf/8.3.0/../../../../aarch64-none-elf/lib/pic/libg.a(lib_a-__call_atexit.o)
 .comment       0x0000000000000000       0x23 /opt/devkitpro/devkitA64/lib/gcc/aarch64-none-elf/8.3.0/../../../../aarch64-none-elf/lib/pic/libg.a(lib_a-__call_atexit.o)
 .text          0x0000000000000000        0x0 /opt/devkitpro/devkitA64/lib/gcc/aarch64-none-elf/8.3.0/../../../../aarch64-none-elf/lib/pic/libg.a(lib_a-dtoa.o)
 .data          0x0000000000000000        0x0 /opt/devkitpro/devkitA64/lib/gcc/aarch64-none-elf/8.3.0/../../../../aarch64-none-elf/lib/pic/libg.a(lib_a-dtoa.o)
 .bss           0x0000000000000000        0x0 /opt/devkitpro/devkitA64/lib/gcc/aarch64-none-elf/8.3.0/../../../../aarch64-none-elf/lib/pic/libg.a(lib_a-dtoa.o)
 .comment       0x0000000000000000       0x23 /opt/devkitpro/devkitA64/lib/gcc/aarch64-none-elf/8.3.0/../../../../aarch64-none-elf/lib/pic/libg.a(lib_a-dtoa.o)
 .text          0x0000000000000000        0x0 /opt/devkitpro/devkitA64/lib/gcc/aarch64-none-elf/8.3.0/../../../../aarch64-none-elf/lib/pic/libg.a(lib_a-environ.o)
 .data          0x0000000000000000        0x0 /opt/devkitpro/devkitA64/lib/gcc/aarch64-none-elf/8.3.0/../../../../aarch64-none-elf/lib/pic/libg.a(lib_a-environ.o)
 .bss           0x0000000000000000        0x0 /opt/devkitpro/devkitA64/lib/gcc/aarch64-none-elf/8.3.0/../../../../aarch64-none-elf/lib/pic/libg.a(lib_a-environ.o)
 .comment       0x0000000000000000       0x23 /opt/devkitpro/devkitA64/lib/gcc/aarch64-none-elf/8.3.0/../../../../aarch64-none-elf/lib/pic/libg.a(lib_a-environ.o)
 .text          0x0000000000000000        0x0 /opt/devkitpro/devkitA64/lib/gcc/aarch64-none-elf/8.3.0/../../../../aarch64-none-elf/lib/pic/libg.a(lib_a-envlock.o)
 .data          0x0000000000000000        0x0 /opt/devkitpro/devkitA64/lib/gcc/aarch64-none-elf/8.3.0/../../../../aarch64-none-elf/lib/pic/libg.a(lib_a-envlock.o)
 .bss           0x0000000000000000        0x0 /opt/devkitpro/devkitA64/lib/gcc/aarch64-none-elf/8.3.0/../../../../aarch64-none-elf/lib/pic/libg.a(lib_a-envlock.o)
 .comment       0x0000000000000000       0x23 /opt/devkitpro/devkitA64/lib/gcc/aarch64-none-elf/8.3.0/../../../../aarch64-none-elf/lib/pic/libg.a(lib_a-envlock.o)
 .text          0x0000000000000000        0x0 /opt/devkitpro/devkitA64/lib/gcc/aarch64-none-elf/8.3.0/../../../../aarch64-none-elf/lib/pic/libg.a(lib_a-freer.o)
 .data          0x0000000000000000        0x0 /opt/devkitpro/devkitA64/lib/gcc/aarch64-none-elf/8.3.0/../../../../aarch64-none-elf/lib/pic/libg.a(lib_a-freer.o)
 .bss           0x0000000000000000        0x0 /opt/devkitpro/devkitA64/lib/gcc/aarch64-none-elf/8.3.0/../../../../aarch64-none-elf/lib/pic/libg.a(lib_a-freer.o)
 .comment       0x0000000000000000       0x23 /opt/devkitpro/devkitA64/lib/gcc/aarch64-none-elf/8.3.0/../../../../aarch64-none-elf/lib/pic/libg.a(lib_a-freer.o)
 .text          0x0000000000000000        0x0 /opt/devkitpro/devkitA64/lib/gcc/aarch64-none-elf/8.3.0/../../../../aarch64-none-elf/lib/pic/libg.a(lib_a-getenv_r.o)
 .data          0x0000000000000000        0x0 /opt/devkitpro/devkitA64/lib/gcc/aarch64-none-elf/8.3.0/../../../../aarch64-none-elf/lib/pic/libg.a(lib_a-getenv_r.o)
 .bss           0x0000000000000000        0x0 /opt/devkitpro/devkitA64/lib/gcc/aarch64-none-elf/8.3.0/../../../../aarch64-none-elf/lib/pic/libg.a(lib_a-getenv_r.o)
 .comment       0x0000000000000000       0x23 /opt/devkitpro/devkitA64/lib/gcc/aarch64-none-elf/8.3.0/../../../../aarch64-none-elf/lib/pic/libg.a(lib_a-getenv_r.o)
 .text          0x0000000000000000        0x0 /opt/devkitpro/devkitA64/lib/gcc/aarch64-none-elf/8.3.0/../../../../aarch64-none-elf/lib/pic/libg.a(lib_a-localeconv.o)
 .data          0x0000000000000000        0x0 /opt/devkitpro/devkitA64/lib/gcc/aarch64-none-elf/8.3.0/../../../../aarch64-none-elf/lib/pic/libg.a(lib_a-localeconv.o)
 .bss           0x0000000000000000        0x0 /opt/devkitpro/devkitA64/lib/gcc/aarch64-none-elf/8.3.0/../../../../aarch64-none-elf/lib/pic/libg.a(lib_a-localeconv.o)
 .comment       0x0000000000000000       0x23 /opt/devkitpro/devkitA64/lib/gcc/aarch64-none-elf/8.3.0/../../../../aarch64-none-elf/lib/pic/libg.a(lib_a-localeconv.o)
 .text          0x0000000000000000        0x0 /opt/devkitpro/devkitA64/lib/gcc/aarch64-none-elf/8.3.0/../../../../aarch64-none-elf/lib/pic/libg.a(lib_a-locale.o)
 .data          0x0000000000000000        0x0 /opt/devkitpro/devkitA64/lib/gcc/aarch64-none-elf/8.3.0/../../../../aarch64-none-elf/lib/pic/libg.a(lib_a-locale.o)
 .bss           0x0000000000000000        0x0 /opt/devkitpro/devkitA64/lib/gcc/aarch64-none-elf/8.3.0/../../../../aarch64-none-elf/lib/pic/libg.a(lib_a-locale.o)
 .comment       0x0000000000000000       0x23 /opt/devkitpro/devkitA64/lib/gcc/aarch64-none-elf/8.3.0/../../../../aarch64-none-elf/lib/pic/libg.a(lib_a-locale.o)
 .text          0x0000000000000000        0x0 /opt/devkitpro/devkitA64/lib/gcc/aarch64-none-elf/8.3.0/../../../../aarch64-none-elf/lib/pic/libg.a(lib_a-mbtowc_r.o)
 .data          0x0000000000000000        0x0 /opt/devkitpro/devkitA64/lib/gcc/aarch64-none-elf/8.3.0/../../../../aarch64-none-elf/lib/pic/libg.a(lib_a-mbtowc_r.o)
 .bss           0x0000000000000000        0x0 /opt/devkitpro/devkitA64/lib/gcc/aarch64-none-elf/8.3.0/../../../../aarch64-none-elf/lib/pic/libg.a(lib_a-mbtowc_r.o)
 .comment       0x0000000000000000       0x23 /opt/devkitpro/devkitA64/lib/gcc/aarch64-none-elf/8.3.0/../../../../aarch64-none-elf/lib/pic/libg.a(lib_a-mbtowc_r.o)
 .data          0x0000000000000000        0x0 /opt/devkitpro/devkitA64/lib/gcc/aarch64-none-elf/8.3.0/../../../../aarch64-none-elf/lib/pic/libg.a(lib_a-memchr.o)
 .bss           0x0000000000000000        0x0 /opt/devkitpro/devkitA64/lib/gcc/aarch64-none-elf/8.3.0/../../../../aarch64-none-elf/lib/pic/libg.a(lib_a-memchr.o)
 .text          0x0000000000000000        0x0 /opt/devkitpro/devkitA64/lib/gcc/aarch64-none-elf/8.3.0/../../../../aarch64-none-elf/lib/pic/libg.a(lib_a-mprec.o)
 .data          0x0000000000000000        0x0 /opt/devkitpro/devkitA64/lib/gcc/aarch64-none-elf/8.3.0/../../../../aarch64-none-elf/lib/pic/libg.a(lib_a-mprec.o)
 .bss           0x0000000000000000        0x0 /opt/devkitpro/devkitA64/lib/gcc/aarch64-none-elf/8.3.0/../../../../aarch64-none-elf/lib/pic/libg.a(lib_a-mprec.o)
 .comment       0x0000000000000000       0x23 /opt/devkitpro/devkitA64/lib/gcc/aarch64-none-elf/8.3.0/../../../../aarch64-none-elf/lib/pic/libg.a(lib_a-mprec.o)
 .text          0x0000000000000000        0x0 /opt/devkitpro/devkitA64/lib/gcc/aarch64-none-elf/8.3.0/../../../../aarch64-none-elf/lib/pic/libg.a(lib_a-reallocr.o)
 .data          0x0000000000000000        0x0 /opt/devkitpro/devkitA64/lib/gcc/aarch64-none-elf/8.3.0/../../../../aarch64-none-elf/lib/pic/libg.a(lib_a-reallocr.o)
 .bss           0x0000000000000000        0x0 /opt/devkitpro/devkitA64/lib/gcc/aarch64-none-elf/8.3.0/../../../../aarch64-none-elf/lib/pic/libg.a(lib_a-reallocr.o)
 .comment       0x0000000000000000       0x23 /opt/devkitpro/devkitA64/lib/gcc/aarch64-none-elf/8.3.0/../../../../aarch64-none-elf/lib/pic/libg.a(lib_a-reallocr.o)
 .text          0x0000000000000000        0x0 /opt/devkitpro/devkitA64/lib/gcc/aarch64-none-elf/8.3.0/../../../../aarch64-none-elf/lib/pic/libg.a(lib_a-s_frexp.o)
 .data          0x0000000000000000        0x0 /opt/devkitpro/devkitA64/lib/gcc/aarch64-none-elf/8.3.0/../../../../aarch64-none-elf/lib/pic/libg.a(lib_a-s_frexp.o)
 .bss           0x0000000000000000        0x0 /opt/devkitpro/devkitA64/lib/gcc/aarch64-none-elf/8.3.0/../../../../aarch64-none-elf/lib/pic/libg.a(lib_a-s_frexp.o)
 .comment       0x0000000000000000       0x23 /opt/devkitpro/devkitA64/lib/gcc/aarch64-none-elf/8.3.0/../../../../aarch64-none-elf/lib/pic/libg.a(lib_a-s_frexp.o)
 .text          0x0000000000000000        0x0 /opt/devkitpro/devkitA64/lib/gcc/aarch64-none-elf/8.3.0/../../../../aarch64-none-elf/lib/pic/libg.a(lib_a-strcasecmp.o)
 .data          0x0000000000000000        0x0 /opt/devkitpro/devkitA64/lib/gcc/aarch64-none-elf/8.3.0/../../../../aarch64-none-elf/lib/pic/libg.a(lib_a-strcasecmp.o)
 .bss           0x0000000000000000        0x0 /opt/devkitpro/devkitA64/lib/gcc/aarch64-none-elf/8.3.0/../../../../aarch64-none-elf/lib/pic/libg.a(lib_a-strcasecmp.o)
 .comment       0x0000000000000000       0x23 /opt/devkitpro/devkitA64/lib/gcc/aarch64-none-elf/8.3.0/../../../../aarch64-none-elf/lib/pic/libg.a(lib_a-strcasecmp.o)
 .text          0x0000000000000000        0x0 /opt/devkitpro/devkitA64/lib/gcc/aarch64-none-elf/8.3.0/../../../../aarch64-none-elf/lib/pic/libg.a(lib_a-strcat.o)
 .data          0x0000000000000000        0x0 /opt/devkitpro/devkitA64/lib/gcc/aarch64-none-elf/8.3.0/../../../../aarch64-none-elf/lib/pic/libg.a(lib_a-strcat.o)
 .bss           0x0000000000000000        0x0 /opt/devkitpro/devkitA64/lib/gcc/aarch64-none-elf/8.3.0/../../../../aarch64-none-elf/lib/pic/libg.a(lib_a-strcat.o)
 .comment       0x0000000000000000       0x23 /opt/devkitpro/devkitA64/lib/gcc/aarch64-none-elf/8.3.0/../../../../aarch64-none-elf/lib/pic/libg.a(lib_a-strcat.o)
 .data          0x0000000000000000        0x0 /opt/devkitpro/devkitA64/lib/gcc/aarch64-none-elf/8.3.0/../../../../aarch64-none-elf/lib/pic/libg.a(lib_a-strcmp.o)
 .bss           0x0000000000000000        0x0 /opt/devkitpro/devkitA64/lib/gcc/aarch64-none-elf/8.3.0/../../../../aarch64-none-elf/lib/pic/libg.a(lib_a-strcmp.o)
 .text          0x0000000000000000        0x0 /opt/devkitpro/devkitA64/lib/gcc/aarch64-none-elf/8.3.0/../../../../aarch64-none-elf/lib/pic/libg.a(lib_a-strlcpy.o)
 .data          0x0000000000000000        0x0 /opt/devkitpro/devkitA64/lib/gcc/aarch64-none-elf/8.3.0/../../../../aarch64-none-elf/lib/pic/libg.a(lib_a-strlcpy.o)
 .bss           0x0000000000000000        0x0 /opt/devkitpro/devkitA64/lib/gcc/aarch64-none-elf/8.3.0/../../../../aarch64-none-elf/lib/pic/libg.a(lib_a-strlcpy.o)
 .comment       0x0000000000000000       0x23 /opt/devkitpro/devkitA64/lib/gcc/aarch64-none-elf/8.3.0/../../../../aarch64-none-elf/lib/pic/libg.a(lib_a-strlcpy.o)
 .text          0x0000000000000000        0x0 /opt/devkitpro/devkitA64/lib/gcc/aarch64-none-elf/8.3.0/../../../../aarch64-none-elf/lib/pic/libg.a(lib_a-strncasecmp.o)
 .data          0x0000000000000000        0x0 /opt/devkitpro/devkitA64/lib/gcc/aarch64-none-elf/8.3.0/../../../../aarch64-none-elf/lib/pic/libg.a(lib_a-strncasecmp.o)
 .bss           0x0000000000000000        0x0 /opt/devkitpro/devkitA64/lib/gcc/aarch64-none-elf/8.3.0/../../../../aarch64-none-elf/lib/pic/libg.a(lib_a-strncasecmp.o)
 .comment       0x0000000000000000       0x23 /opt/devkitpro/devkitA64/lib/gcc/aarch64-none-elf/8.3.0/../../../../aarch64-none-elf/lib/pic/libg.a(lib_a-strncasecmp.o)
 .text          0x0000000000000000        0x0 /opt/devkitpro/devkitA64/lib/gcc/aarch64-none-elf/8.3.0/../../../../aarch64-none-elf/lib/pic/libg.a(lib_a-svfiprintf.o)
 .data          0x0000000000000000        0x0 /opt/devkitpro/devkitA64/lib/gcc/aarch64-none-elf/8.3.0/../../../../aarch64-none-elf/lib/pic/libg.a(lib_a-svfiprintf.o)
 .bss           0x0000000000000000        0x0 /opt/devkitpro/devkitA64/lib/gcc/aarch64-none-elf/8.3.0/../../../../aarch64-none-elf/lib/pic/libg.a(lib_a-svfiprintf.o)
 .comment       0x0000000000000000       0x23 /opt/devkitpro/devkitA64/lib/gcc/aarch64-none-elf/8.3.0/../../../../aarch64-none-elf/lib/pic/libg.a(lib_a-svfiprintf.o)
 .text          0x0000000000000000        0x0 /opt/devkitpro/devkitA64/lib/gcc/aarch64-none-elf/8.3.0/../../../../aarch64-none-elf/lib/pic/libg.a(lib_a-wcsnrtombs.o)
 .data          0x0000000000000000        0x0 /opt/devkitpro/devkitA64/lib/gcc/aarch64-none-elf/8.3.0/../../../../aarch64-none-elf/lib/pic/libg.a(lib_a-wcsnrtombs.o)
 .bss           0x0000000000000000        0x0 /opt/devkitpro/devkitA64/lib/gcc/aarch64-none-elf/8.3.0/../../../../aarch64-none-elf/lib/pic/libg.a(lib_a-wcsnrtombs.o)
 .comment       0x0000000000000000       0x23 /opt/devkitpro/devkitA64/lib/gcc/aarch64-none-elf/8.3.0/../../../../aarch64-none-elf/lib/pic/libg.a(lib_a-wcsnrtombs.o)
 .text          0x0000000000000000        0x0 /opt/devkitpro/devkitA64/lib/gcc/aarch64-none-elf/8.3.0/../../../../aarch64-none-elf/lib/pic/libg.a(lib_a-wctomb_r.o)
 .data          0x0000000000000000        0x0 /opt/devkitpro/devkitA64/lib/gcc/aarch64-none-elf/8.3.0/../../../../aarch64-none-elf/lib/pic/libg.a(lib_a-wctomb_r.o)
 .bss           0x0000000000000000        0x0 /opt/devkitpro/devkitA64/lib/gcc/aarch64-none-elf/8.3.0/../../../../aarch64-none-elf/lib/pic/libg.a(lib_a-wctomb_r.o)
 .comment       0x0000000000000000       0x23 /opt/devkitpro/devkitA64/lib/gcc/aarch64-none-elf/8.3.0/../../../../aarch64-none-elf/lib/pic/libg.a(lib_a-wctomb_r.o)
 .text          0x0000000000000000        0x0 /opt/devkitpro/devkitA64/lib/gcc/aarch64-none-elf/8.3.0/../../../../aarch64-none-elf/lib/pic/libg.a(lib_a-callocr.o)
 .data          0x0000000000000000        0x0 /opt/devkitpro/devkitA64/lib/gcc/aarch64-none-elf/8.3.0/../../../../aarch64-none-elf/lib/pic/libg.a(lib_a-callocr.o)
 .bss           0x0000000000000000        0x0 /opt/devkitpro/devkitA64/lib/gcc/aarch64-none-elf/8.3.0/../../../../aarch64-none-elf/lib/pic/libg.a(lib_a-callocr.o)
 .comment       0x0000000000000000       0x23 /opt/devkitpro/devkitA64/lib/gcc/aarch64-none-elf/8.3.0/../../../../aarch64-none-elf/lib/pic/libg.a(lib_a-callocr.o)
 .data          0x0000000000000000        0x0 /opt/devkitpro/devkitA64/lib/gcc/aarch64-none-elf/8.3.0/../../../../aarch64-none-elf/lib/pic/libg.a(lib_a-memmove.o)
 .bss           0x0000000000000000        0x0 /opt/devkitpro/devkitA64/lib/gcc/aarch64-none-elf/8.3.0/../../../../aarch64-none-elf/lib/pic/libg.a(lib_a-memmove.o)
 .text          0x0000000000000000        0x0 /opt/devkitpro/devkitA64/lib/gcc/aarch64-none-elf/8.3.0/../../../../aarch64-none-elf/lib/pic/libsysbase.a(iosupport.o)
 .data          0x0000000000000000        0x0 /opt/devkitpro/devkitA64/lib/gcc/aarch64-none-elf/8.3.0/../../../../aarch64-none-elf/lib/pic/libsysbase.a(iosupport.o)
 .bss           0x0000000000000000        0x0 /opt/devkitpro/devkitA64/lib/gcc/aarch64-none-elf/8.3.0/../../../../aarch64-none-elf/lib/pic/libsysbase.a(iosupport.o)
 .comment       0x0000000000000000       0x23 /opt/devkitpro/devkitA64/lib/gcc/aarch64-none-elf/8.3.0/../../../../aarch64-none-elf/lib/pic/libsysbase.a(iosupport.o)
 .text          0x0000000000000000        0x0 /opt/devkitpro/devkitA64/lib/gcc/aarch64-none-elf/8.3.0/../../../../aarch64-none-elf/lib/pic/libsysbase.a(sbrk.o)
 .data          0x0000000000000000        0x0 /opt/devkitpro/devkitA64/lib/gcc/aarch64-none-elf/8.3.0/../../../../aarch64-none-elf/lib/pic/libsysbase.a(sbrk.o)
 .bss           0x0000000000000000        0x0 /opt/devkitpro/devkitA64/lib/gcc/aarch64-none-elf/8.3.0/../../../../aarch64-none-elf/lib/pic/libsysbase.a(sbrk.o)
 .comment       0x0000000000000000       0x23 /opt/devkitpro/devkitA64/lib/gcc/aarch64-none-elf/8.3.0/../../../../aarch64-none-elf/lib/pic/libsysbase.a(sbrk.o)
 .text          0x0000000000000000        0x0 /opt/devkitpro/devkitA64/lib/gcc/aarch64-none-elf/8.3.0/../../../../aarch64-none-elf/lib/pic/libsysbase.a(_exit.o)
 .data          0x0000000000000000        0x0 /opt/devkitpro/devkitA64/lib/gcc/aarch64-none-elf/8.3.0/../../../../aarch64-none-elf/lib/pic/libsysbase.a(_exit.o)
 .bss           0x0000000000000000        0x0 /opt/devkitpro/devkitA64/lib/gcc/aarch64-none-elf/8.3.0/../../../../aarch64-none-elf/lib/pic/libsysbase.a(_exit.o)
 .comment       0x0000000000000000       0x23 /opt/devkitpro/devkitA64/lib/gcc/aarch64-none-elf/8.3.0/../../../../aarch64-none-elf/lib/pic/libsysbase.a(_exit.o)
 .text          0x0000000000000000        0x0 /opt/devkitpro/devkitA64/lib/gcc/aarch64-none-elf/8.3.0/../../../../aarch64-none-elf/lib/pic/libsysbase.a(malloc_vars.o)
 .data          0x0000000000000000        0x0 /opt/devkitpro/devkitA64/lib/gcc/aarch64-none-elf/8.3.0/../../../../aarch64-none-elf/lib/pic/libsysbase.a(malloc_vars.o)
 .bss           0x0000000000000000        0x0 /opt/devkitpro/devkitA64/lib/gcc/aarch64-none-elf/8.3.0/../../../../aarch64-none-elf/lib/pic/libsysbase.a(malloc_vars.o)
 .comment       0x0000000000000000       0x23 /opt/devkitpro/devkitA64/lib/gcc/aarch64-none-elf/8.3.0/../../../../aarch64-none-elf/lib/pic/libsysbase.a(malloc_vars.o)
 .text          0x0000000000000000        0x0 /opt/devkitpro/devkitA64/lib/gcc/aarch64-none-elf/8.3.0/../../../../aarch64-none-elf/lib/pic/libsysbase.a(chdir.o)
 .data          0x0000000000000000        0x0 /opt/devkitpro/devkitA64/lib/gcc/aarch64-none-elf/8.3.0/../../../../aarch64-none-elf/lib/pic/libsysbase.a(chdir.o)
 .bss           0x0000000000000000        0x0 /opt/devkitpro/devkitA64/lib/gcc/aarch64-none-elf/8.3.0/../../../../aarch64-none-elf/lib/pic/libsysbase.a(chdir.o)
 .comment       0x0000000000000000       0x23 /opt/devkitpro/devkitA64/lib/gcc/aarch64-none-elf/8.3.0/../../../../aarch64-none-elf/lib/pic/libsysbase.a(chdir.o)
 .text          0x0000000000000000        0x0 /opt/devkitpro/devkitA64/lib/gcc/aarch64-none-elf/8.3.0/../../../../aarch64-none-elf/lib/pic/libsysbase.a(locks.o)
 .data          0x0000000000000000        0x0 /opt/devkitpro/devkitA64/lib/gcc/aarch64-none-elf/8.3.0/../../../../aarch64-none-elf/lib/pic/libsysbase.a(locks.o)
 .bss           0x0000000000000000        0x0 /opt/devkitpro/devkitA64/lib/gcc/aarch64-none-elf/8.3.0/../../../../aarch64-none-elf/lib/pic/libsysbase.a(locks.o)
 .comment       0x0000000000000000       0x23 /opt/devkitpro/devkitA64/lib/gcc/aarch64-none-elf/8.3.0/../../../../aarch64-none-elf/lib/pic/libsysbase.a(locks.o)
 .text          0x0000000000000000        0x0 /opt/devkitpro/devkitA64/lib/gcc/aarch64-none-elf/8.3.0/../../../../aarch64-none-elf/lib/pic/libsysbase.a(getreent.o)
 .data          0x0000000000000000        0x0 /opt/devkitpro/devkitA64/lib/gcc/aarch64-none-elf/8.3.0/../../../../aarch64-none-elf/lib/pic/libsysbase.a(getreent.o)
 .bss           0x0000000000000000        0x0 /opt/devkitpro/devkitA64/lib/gcc/aarch64-none-elf/8.3.0/../../../../aarch64-none-elf/lib/pic/libsysbase.a(getreent.o)
 .comment       0x0000000000000000       0x23 /opt/devkitpro/devkitA64/lib/gcc/aarch64-none-elf/8.3.0/../../../../aarch64-none-elf/lib/pic/libsysbase.a(getreent.o)
 .text          0x0000000000000000        0x0 /opt/devkitpro/devkitA64/lib/gcc/aarch64-none-elf/8.3.0/../../../../aarch64-none-elf/lib/pic/libsysbase.a(clocks.o)
 .data          0x0000000000000000        0x0 /opt/devkitpro/devkitA64/lib/gcc/aarch64-none-elf/8.3.0/../../../../aarch64-none-elf/lib/pic/libsysbase.a(clocks.o)
 .bss           0x0000000000000000        0x0 /opt/devkitpro/devkitA64/lib/gcc/aarch64-none-elf/8.3.0/../../../../aarch64-none-elf/lib/pic/libsysbase.a(clocks.o)
 .comment       0x0000000000000000       0x23 /opt/devkitpro/devkitA64/lib/gcc/aarch64-none-elf/8.3.0/../../../../aarch64-none-elf/lib/pic/libsysbase.a(clocks.o)
 .text          0x0000000000000000        0x0 /opt/devkitpro/devkitA64/lib/gcc/aarch64-none-elf/8.3.0/pic/libgcc.a(trunctfdf2.o)
 .data          0x0000000000000000        0x0 /opt/devkitpro/devkitA64/lib/gcc/aarch64-none-elf/8.3.0/pic/libgcc.a(trunctfdf2.o)
 .bss           0x0000000000000000        0x0 /opt/devkitpro/devkitA64/lib/gcc/aarch64-none-elf/8.3.0/pic/libgcc.a(trunctfdf2.o)
 .comment       0x0000000000000000       0x23 /opt/devkitpro/devkitA64/lib/gcc/aarch64-none-elf/8.3.0/pic/libgcc.a(trunctfdf2.o)
 .text          0x0000000000000000        0x0 /opt/devkitpro/devkitA64/lib/gcc/aarch64-none-elf/8.3.0/pic/libgcc.a(sfp-exceptions.o)
 .data          0x0000000000000000        0x0 /opt/devkitpro/devkitA64/lib/gcc/aarch64-none-elf/8.3.0/pic/libgcc.a(sfp-exceptions.o)
 .bss           0x0000000000000000        0x0 /opt/devkitpro/devkitA64/lib/gcc/aarch64-none-elf/8.3.0/pic/libgcc.a(sfp-exceptions.o)
 .comment       0x0000000000000000       0x23 /opt/devkitpro/devkitA64/lib/gcc/aarch64-none-elf/8.3.0/pic/libgcc.a(sfp-exceptions.o)
 .text          0x0000000000000000        0x0 /opt/devkitpro/devkitA64/lib/gcc/aarch64-none-elf/8.3.0/pic/crtend.o
 .data          0x0000000000000000        0x0 /opt/devkitpro/devkitA64/lib/gcc/aarch64-none-elf/8.3.0/pic/crtend.o
 .bss           0x0000000000000000        0x0 /opt/devkitpro/devkitA64/lib/gcc/aarch64-none-elf/8.3.0/pic/crtend.o
 .comment       0x0000000000000000       0x23 /opt/devkitpro/devkitA64/lib/gcc/aarch64-none-elf/8.3.0/pic/crtend.o
 .text          0x0000000000000000        0x0 /opt/devkitpro/devkitA64/lib/gcc/aarch64-none-elf/8.3.0/pic/crtn.o
 .data          0x0000000000000000        0x0 /opt/devkitpro/devkitA64/lib/gcc/aarch64-none-elf/8.3.0/pic/crtn.o
 .bss           0x0000000000000000        0x0 /opt/devkitpro/devkitA64/lib/gcc/aarch64-none-elf/8.3.0/pic/crtn.o

Memory Configuration

Name             Origin             Length             Attributes
*default*        0x0000000000000000 0xffffffffffffffff

Linker script and memory map

                0x0000000000000000                PROVIDE (__start__ = 0x0)
                0x0000000000000000                . = __start__

.crt0           0x0000000000000000      0x158
 *(.crt0)
 .crt0          0x0000000000000000      0x158 /home/jam/dev/ultimate/saltynx/arc_mod_installer/../libnx_min/nx//lib/libnx_min.a(switch_crt0.o)
                0x0000000000000000                _start
                0x0000000000000120                __nx_exit
                0x0000000000000130                __nx_mod0
                0x0000000000000158                . = ALIGN (0x8)

.init           0x0000000000000158       0x38
 *(.init)
 .init          0x0000000000000158       0x18 /opt/devkitpro/devkitA64/lib/gcc/aarch64-none-elf/8.3.0/pic/crti.o
                0x0000000000000158                _init
 .init          0x0000000000000170       0x1c /opt/devkitpro/devkitA64/lib/gcc/aarch64-none-elf/8.3.0/pic/crtn.o
                0x0000000000000190                . = ALIGN (0x8)
 *fill*         0x000000000000018c        0x4 

.plt            0x0000000000000190       0xa0
 *(.plt)
 .plt           0x0000000000000190       0xa0 /opt/devkitpro/devkitA64/lib/gcc/aarch64-none-elf/8.3.0/pic/crti.o
 *(.iplt)
                0x0000000000000230                . = ALIGN (0x8)

.text           0x0000000000000240    0x28050
 *(.text.unlikely .text.*_unlikely .text.unlikely.*)
 *(.text.exit .text.exit.*)
 .text.exit     0x0000000000000240       0x38 /opt/devkitpro/devkitA64/lib/gcc/aarch64-none-elf/8.3.0/../../../../aarch64-none-elf/lib/pic/libg.a(lib_a-exit.o)
                0x0000000000000240                exit
 *(.text.startup .text.startup.*)
 *fill*         0x0000000000000278        0x8 
 .text.startup  0x0000000000000280       0x30 main.o
                0x0000000000000280                main
 *(.text.hot .text.hot.*)
 *(.text .stub .text.* .gnu.linkonce.t.*)
 .text.deregister_tm_clones
                0x00000000000002b0       0x2c /opt/devkitpro/devkitA64/lib/gcc/aarch64-none-elf/8.3.0/pic/crtbegin.o
 *fill*         0x00000000000002dc        0x4 
 .text.register_tm_clones
                0x00000000000002e0       0x38 /opt/devkitpro/devkitA64/lib/gcc/aarch64-none-elf/8.3.0/pic/crtbegin.o
 .text.__do_global_dtors_aux
                0x0000000000000318       0x48 /opt/devkitpro/devkitA64/lib/gcc/aarch64-none-elf/8.3.0/pic/crtbegin.o
 .text.frame_dummy
                0x0000000000000360       0x34 /opt/devkitpro/devkitA64/lib/gcc/aarch64-none-elf/8.3.0/pic/crtbegin.o
 *fill*         0x0000000000000394        0xc 
 .text          0x00000000000003a0      0x3c8 main.o
                0x00000000000003a0                __libnx_init
                0x0000000000000400                __libnx_exit
                0x0000000000000450                load_mod
                0x0000000000000560                load_mods
 *fill*         0x0000000000000768        0x8 
 .text.__nx_dynamic
                0x0000000000000770       0xa0 /home/jam/dev/ultimate/saltynx/arc_mod_installer/../libnx_min/nx//lib/libnx_min.a(dynamic.o)
                0x0000000000000770                __nx_dynamic
 .text.__libnx_initheap
                0x0000000000000810       0xd8 /home/jam/dev/ultimate/saltynx/arc_mod_installer/../libnx_min/nx//lib/libnx_min.a(init.o)
                0x0000000000000810                __libnx_initheap
 *fill*         0x00000000000008e8        0x8 
 .text.__appInit
                0x00000000000008f0       0xdc /home/jam/dev/ultimate/saltynx/arc_mod_installer/../libnx_min/nx//lib/libnx_min.a(init.o)
                0x00000000000008f0                __appInit
 *fill*         0x00000000000009cc        0x4 
 .text.__appExit
                0x00000000000009d0       0x44 /home/jam/dev/ultimate/saltynx/arc_mod_installer/../libnx_min/nx//lib/libnx_min.a(init.o)
                0x00000000000009d0                __appExit
 *fill*         0x0000000000000a14        0xc 
 .text.envSetup
                0x0000000000000a20      0x208 /home/jam/dev/ultimate/saltynx/arc_mod_installer/../libnx_min/nx//lib/libnx_min.a(env.o)
                0x0000000000000a20                envSetup
 *fill*         0x0000000000000c28        0x8 
 .text.envGetMainThreadHandle
                0x0000000000000c30       0x20 /home/jam/dev/ultimate/saltynx/arc_mod_installer/../libnx_min/nx//lib/libnx_min.a(env.o)
                0x0000000000000c30                envGetMainThreadHandle
 .text.envIsNso
                0x0000000000000c50        0xc /home/jam/dev/ultimate/saltynx/arc_mod_installer/../libnx_min/nx//lib/libnx_min.a(env.o)
                0x0000000000000c50                envIsNso
 *fill*         0x0000000000000c5c        0x4 
 .text.envHasHeapOverride
                0x0000000000000c60       0x14 /home/jam/dev/ultimate/saltynx/arc_mod_installer/../libnx_min/nx//lib/libnx_min.a(env.o)
                0x0000000000000c60                envHasHeapOverride
 *fill*         0x0000000000000c74        0xc 
 .text.envGetHeapOverrideAddr
                0x0000000000000c80        0xc /home/jam/dev/ultimate/saltynx/arc_mod_installer/../libnx_min/nx//lib/libnx_min.a(env.o)
                0x0000000000000c80                envGetHeapOverrideAddr
 *fill*         0x0000000000000c8c        0x4 
 .text.envGetHeapOverrideSize
                0x0000000000000c90        0xc /home/jam/dev/ultimate/saltynx/arc_mod_installer/../libnx_min/nx//lib/libnx_min.a(env.o)
                0x0000000000000c90                envGetHeapOverrideSize
 *fill*         0x0000000000000c9c        0x4 
 .text.envHasArgv
                0x0000000000000ca0       0x14 /home/jam/dev/ultimate/saltynx/arc_mod_installer/../libnx_min/nx//lib/libnx_min.a(env.o)
                0x0000000000000ca0                envHasArgv
 *fill*         0x0000000000000cb4        0xc 
 .text.envGetArgv
                0x0000000000000cc0        0xc /home/jam/dev/ultimate/saltynx/arc_mod_installer/../libnx_min/nx//lib/libnx_min.a(env.o)
                0x0000000000000cc0                envGetArgv
 *fill*         0x0000000000000ccc        0x4 
 .text.envIsSyscallHinted
                0x0000000000000cd0       0x20 /home/jam/dev/ultimate/saltynx/arc_mod_installer/../libnx_min/nx//lib/libnx_min.a(env.o)
                0x0000000000000cd0                envIsSyscallHinted
 .text.envGetOwnProcessHandle
                0x0000000000000cf0        0xc /home/jam/dev/ultimate/saltynx/arc_mod_installer/../libnx_min/nx//lib/libnx_min.a(env.o)
                0x0000000000000cf0                envGetOwnProcessHandle
 *fill*         0x0000000000000cfc        0x4 
 .text.envGetExitFuncPtr
                0x0000000000000d00        0xc /home/jam/dev/ultimate/saltynx/arc_mod_installer/../libnx_min/nx//lib/libnx_min.a(env.o)
                0x0000000000000d00                envGetExitFuncPtr
 *fill*         0x0000000000000d0c        0x4 
 .text.envSetExitFuncPtr
                0x0000000000000d10        0xc /home/jam/dev/ultimate/saltynx/arc_mod_installer/../libnx_min/nx//lib/libnx_min.a(env.o)
                0x0000000000000d10                envSetExitFuncPtr
 *fill*         0x0000000000000d1c        0x4 
 .text.envSetNextLoad
                0x0000000000000d20       0x7c /home/jam/dev/ultimate/saltynx/arc_mod_installer/../libnx_min/nx//lib/libnx_min.a(env.o)
                0x0000000000000d20                envSetNextLoad
 *fill*         0x0000000000000d9c        0x4 
 .text.envHasNextLoad
                0x0000000000000da0       0x14 /home/jam/dev/ultimate/saltynx/arc_mod_installer/../libnx_min/nx//lib/libnx_min.a(env.o)
                0x0000000000000da0                envHasNextLoad
 *fill*         0x0000000000000db4        0xc 
 .text.envGetLastLoadResult
                0x0000000000000dc0        0xc /home/jam/dev/ultimate/saltynx/arc_mod_installer/../libnx_min/nx//lib/libnx_min.a(env.o)
                0x0000000000000dc0                envGetLastLoadResult
 *fill*         0x0000000000000dcc        0x4 
 .text.envHasRandomSeed
                0x0000000000000dd0        0xc /home/jam/dev/ultimate/saltynx/arc_mod_installer/../libnx_min/nx//lib/libnx_min.a(env.o)
                0x0000000000000dd0                envHasRandomSeed
 *fill*         0x0000000000000ddc        0x4 
 .text.envGetRandomSeed
                0x0000000000000de0       0x18 /home/jam/dev/ultimate/saltynx/arc_mod_installer/../libnx_min/nx//lib/libnx_min.a(env.o)
                0x0000000000000de0                envGetRandomSeed
 *fill*         0x0000000000000df8        0x8 
 .text.__syscall_exit
                0x0000000000000e00       0x1c /home/jam/dev/ultimate/saltynx/arc_mod_installer/../libnx_min/nx//lib/libnx_min.a(newlib.o)
                0x0000000000000e00                __syscall_exit
 *fill*         0x0000000000000e1c        0x4 
 .text.__syscall_getreent
                0x0000000000000e20       0x10 /home/jam/dev/ultimate/saltynx/arc_mod_installer/../libnx_min/nx//lib/libnx_min.a(newlib.o)
                0x0000000000000e20                __syscall_getreent
 .text.__syscall_lock_acquire
                0x0000000000000e30        0x4 /home/jam/dev/ultimate/saltynx/arc_mod_installer/../libnx_min/nx//lib/libnx_min.a(newlib.o)
                0x0000000000000e30                __syscall_lock_acquire
 *fill*         0x0000000000000e34        0xc 
 .text.__syscall_lock_try_acquire
                0x0000000000000e40       0x1c /home/jam/dev/ultimate/saltynx/arc_mod_installer/../libnx_min/nx//lib/libnx_min.a(newlib.o)
                0x0000000000000e40                __syscall_lock_try_acquire
 *fill*         0x0000000000000e5c        0x4 
 .text.__syscall_lock_release
                0x0000000000000e60        0x4 /home/jam/dev/ultimate/saltynx/arc_mod_installer/../libnx_min/nx//lib/libnx_min.a(newlib.o)
                0x0000000000000e60                __syscall_lock_release
 *fill*         0x0000000000000e64        0xc 
 .text.__syscall_lock_acquire_recursive
                0x0000000000000e70        0x4 /home/jam/dev/ultimate/saltynx/arc_mod_installer/../libnx_min/nx//lib/libnx_min.a(newlib.o)
                0x0000000000000e70                __syscall_lock_acquire_recursive
 *fill*         0x0000000000000e74        0xc 
 .text.__syscall_lock_try_acquire_recursive
                0x0000000000000e80       0x1c /home/jam/dev/ultimate/saltynx/arc_mod_installer/../libnx_min/nx//lib/libnx_min.a(newlib.o)
                0x0000000000000e80                __syscall_lock_try_acquire_recursive
 *fill*         0x0000000000000e9c        0x4 
 .text.__syscall_lock_release_recursive
                0x0000000000000ea0        0x4 /home/jam/dev/ultimate/saltynx/arc_mod_installer/../libnx_min/nx//lib/libnx_min.a(newlib.o)
                0x0000000000000ea0                __syscall_lock_release_recursive
 *fill*         0x0000000000000ea4        0xc 
 .text.__syscall_cond_signal
                0x0000000000000eb0       0x40 /home/jam/dev/ultimate/saltynx/arc_mod_installer/../libnx_min/nx//lib/libnx_min.a(newlib.o)
                0x0000000000000eb0                __syscall_cond_signal
 .text.__syscall_cond_broadcast
                0x0000000000000ef0       0x40 /home/jam/dev/ultimate/saltynx/arc_mod_installer/../libnx_min/nx//lib/libnx_min.a(newlib.o)
                0x0000000000000ef0                __syscall_cond_broadcast
 .text.__syscall_cond_wait
                0x0000000000000f30       0x3c /home/jam/dev/ultimate/saltynx/arc_mod_installer/../libnx_min/nx//lib/libnx_min.a(newlib.o)
                0x0000000000000f30                __syscall_cond_wait
 *fill*         0x0000000000000f6c        0x4 
 .text.__syscall_cond_wait_recursive
                0x0000000000000f70       0x64 /home/jam/dev/ultimate/saltynx/arc_mod_installer/../libnx_min/nx//lib/libnx_min.a(newlib.o)
                0x0000000000000f70                __syscall_cond_wait_recursive
 *fill*         0x0000000000000fd4        0xc 
 .text.__syscall_thread_self
                0x0000000000000fe0       0x14 /home/jam/dev/ultimate/saltynx/arc_mod_installer/../libnx_min/nx//lib/libnx_min.a(newlib.o)
                0x0000000000000fe0                __syscall_thread_self
 *fill*         0x0000000000000ff4        0xc 
 .text.__syscall_thread_exit
                0x0000000000001000       0x2c /home/jam/dev/ultimate/saltynx/arc_mod_installer/../libnx_min/nx//lib/libnx_min.a(newlib.o)
                0x0000000000001000                __syscall_thread_exit
 *fill*         0x000000000000102c        0x4 
 .text.__thread_entry
                0x0000000000001030       0x58 /home/jam/dev/ultimate/saltynx/arc_mod_installer/../libnx_min/nx//lib/libnx_min.a(newlib.o)
 *fill*         0x0000000000001088        0x8 
 .text.__syscall_thread_create
                0x0000000000001090      0x15c /home/jam/dev/ultimate/saltynx/arc_mod_installer/../libnx_min/nx//lib/libnx_min.a(newlib.o)
                0x0000000000001090                __syscall_thread_create
 *fill*         0x00000000000011ec        0x4 
 .text.__syscall_thread_join
                0x00000000000011f0       0x58 /home/jam/dev/ultimate/saltynx/arc_mod_installer/../libnx_min/nx//lib/libnx_min.a(newlib.o)
                0x00000000000011f0                __syscall_thread_join
 *fill*         0x0000000000001248        0x8 
 .text.__syscall_tls_create
                0x0000000000001250       0x44 /home/jam/dev/ultimate/saltynx/arc_mod_installer/../libnx_min/nx//lib/libnx_min.a(newlib.o)
                0x0000000000001250                __syscall_tls_create
 *fill*         0x0000000000001294        0xc 
 .text.__syscall_tls_set
                0x00000000000012a0       0x18 /home/jam/dev/ultimate/saltynx/arc_mod_installer/../libnx_min/nx//lib/libnx_min.a(newlib.o)
                0x00000000000012a0                __syscall_tls_set
 *fill*         0x00000000000012b8        0x8 
 .text.__syscall_tls_get
                0x00000000000012c0        0x4 /home/jam/dev/ultimate/saltynx/arc_mod_installer/../libnx_min/nx//lib/libnx_min.a(newlib.o)
                0x00000000000012c0                __syscall_tls_get
 *fill*         0x00000000000012c4        0xc 
 .text.__syscall_tls_delete
                0x00000000000012d0       0x18 /home/jam/dev/ultimate/saltynx/arc_mod_installer/../libnx_min/nx//lib/libnx_min.a(newlib.o)
                0x00000000000012d0                __syscall_tls_delete
 *fill*         0x00000000000012e8        0x8 
 .text.sched_yield
                0x00000000000012f0       0x1c /home/jam/dev/ultimate/saltynx/arc_mod_installer/../libnx_min/nx//lib/libnx_min.a(newlib.o)
                0x00000000000012f0                sched_yield
 *fill*         0x000000000000130c        0x4 
 .text.sched_getcpu
                0x0000000000001310        0x4 /home/jam/dev/ultimate/saltynx/arc_mod_installer/../libnx_min/nx//lib/libnx_min.a(newlib.o)
                0x0000000000001310                sched_getcpu
 *fill*         0x0000000000001314        0xc 
 .text.__libnx_init_time
                0x0000000000001320      0x27c /home/jam/dev/ultimate/saltynx/arc_mod_installer/../libnx_min/nx//lib/libnx_min.a(newlib.o)
                0x0000000000001320                __libnx_init_time
 *fill*         0x000000000000159c        0x4 
 .text.__syscall_clock_getres
                0x00000000000015a0       0x58 /home/jam/dev/ultimate/saltynx/arc_mod_installer/../libnx_min/nx//lib/libnx_min.a(newlib.o)
                0x00000000000015a0                __syscall_clock_getres
 *fill*         0x00000000000015f8        0x8 
 .text.__syscall_clock_gettime
                0x0000000000001600       0xf8 /home/jam/dev/ultimate/saltynx/arc_mod_installer/../libnx_min/nx//lib/libnx_min.a(newlib.o)
                0x0000000000001600                __syscall_clock_gettime
 *fill*         0x00000000000016f8        0x8 
 .text.__syscall_gettod_r
                0x0000000000001700       0x8c /home/jam/dev/ultimate/saltynx/arc_mod_installer/../libnx_min/nx//lib/libnx_min.a(newlib.o)
                0x0000000000001700                __syscall_gettod_r
 *fill*         0x000000000000178c        0x4 
 .text.__syscall_nanosleep
                0x0000000000001790       0x5c /home/jam/dev/ultimate/saltynx/arc_mod_installer/../libnx_min/nx//lib/libnx_min.a(newlib.o)
                0x0000000000001790                __syscall_nanosleep
 *fill*         0x00000000000017ec        0x4 
 .text.newlibSetup
                0x00000000000017f0       0x74 /home/jam/dev/ultimate/saltynx/arc_mod_installer/../libnx_min/nx//lib/libnx_min.a(newlib.o)
                0x00000000000017f0                newlibSetup
 *fill*         0x0000000000001864        0xc 
 .text.argvSetup
                0x0000000000001870      0x318 /home/jam/dev/ultimate/saltynx/arc_mod_installer/../libnx_min/nx//lib/libnx_min.a(argv.o)
                0x0000000000001870                argvSetup
 *fill*         0x0000000000001b88        0x8 
 .text.fsdev_link
                0x0000000000001b90       0x10 /home/jam/dev/ultimate/saltynx/arc_mod_installer/../libnx_min/nx//lib/libnx_min.a(fs_dev.o)
 .text.fsdev_dirreset
                0x0000000000001ba0       0x10 /home/jam/dev/ultimate/saltynx/arc_mod_installer/../libnx_min/nx//lib/libnx_min.a(fs_dev.o)
 .text.fsdev_chmod
                0x0000000000001bb0       0x10 /home/jam/dev/ultimate/saltynx/arc_mod_installer/../libnx_min/nx//lib/libnx_min.a(fs_dev.o)
 .text.error_cmp
                0x0000000000001bc0       0x1c /home/jam/dev/ultimate/saltynx/arc_mod_installer/../libnx_min/nx//lib/libnx_min.a(fs_dev.o)
 *fill*         0x0000000000001bdc        0x4 
 .text.fsdev_translate_error
                0x0000000000001be0       0x5c /home/jam/dev/ultimate/saltynx/arc_mod_installer/../libnx_min/nx//lib/libnx_min.a(fs_dev.o)
 *fill*         0x0000000000001c3c        0x4 
 .text.fsdev_fsync
                0x0000000000001c40       0x40 /home/jam/dev/ultimate/saltynx/arc_mod_installer/../libnx_min/nx//lib/libnx_min.a(fs_dev.o)
 .text.fsdev_ftruncate
                0x0000000000001c80       0x60 /home/jam/dev/ultimate/saltynx/arc_mod_installer/../libnx_min/nx//lib/libnx_min.a(fs_dev.o)
 .text.fsdev_dirclose
                0x0000000000001ce0       0x20 /home/jam/dev/ultimate/saltynx/arc_mod_installer/../libnx_min/nx//lib/libnx_min.a(fs_dev.o)
 .text.fsdev_dirnext
                0x0000000000001d00      0x16c /home/jam/dev/ultimate/saltynx/arc_mod_installer/../libnx_min/nx//lib/libnx_min.a(fs_dev.o)
 *fill*         0x0000000000001e6c        0x4 
 .text.fsdev_close
                0x0000000000001e70       0x1c /home/jam/dev/ultimate/saltynx/arc_mod_installer/../libnx_min/nx//lib/libnx_min.a(fs_dev.o)
 *fill*         0x0000000000001e8c        0x4 
 .text.fsdev_fstat
                0x0000000000001e90       0xa4 /home/jam/dev/ultimate/saltynx/arc_mod_installer/../libnx_min/nx//lib/libnx_min.a(fs_dev.o)
 *fill*         0x0000000000001f34        0xc 
 .text.fsdev_seek
                0x0000000000001f40       0xb0 /home/jam/dev/ultimate/saltynx/arc_mod_installer/../libnx_min/nx//lib/libnx_min.a(fs_dev.o)
 .text.fsdev_read
                0x0000000000001ff0      0x1a0 /home/jam/dev/ultimate/saltynx/arc_mod_installer/../libnx_min/nx//lib/libnx_min.a(fs_dev.o)
 .text.fsdev_write
                0x0000000000002190      0x1a8 /home/jam/dev/ultimate/saltynx/arc_mod_installer/../libnx_min/nx//lib/libnx_min.a(fs_dev.o)
 *fill*         0x0000000000002338        0x8 
 .text.fsdevFindDevice
                0x0000000000002340      0x120 /home/jam/dev/ultimate/saltynx/arc_mod_installer/../libnx_min/nx//lib/libnx_min.a(fs_dev.o)
 .text._fsdevMountDevice
                0x0000000000002460      0x140 /home/jam/dev/ultimate/saltynx/arc_mod_installer/../libnx_min/nx//lib/libnx_min.a(fs_dev.o)
 .text.fsdev_getfspath
                0x00000000000025a0      0x1fc /home/jam/dev/ultimate/saltynx/arc_mod_installer/../libnx_min/nx//lib/libnx_min.a(fs_dev.o)
 *fill*         0x000000000000279c        0x4 
 .text.fsdev_rmdir
                0x00000000000027a0       0x70 /home/jam/dev/ultimate/saltynx/arc_mod_installer/../libnx_min/nx//lib/libnx_min.a(fs_dev.o)
 .text.fsdev_statvfs
                0x0000000000002810       0xd4 /home/jam/dev/ultimate/saltynx/arc_mod_installer/../libnx_min/nx//lib/libnx_min.a(fs_dev.o)
 *fill*         0x00000000000028e4        0xc 
 .text.fsdev_diropen
                0x00000000000028f0       0xec /home/jam/dev/ultimate/saltynx/arc_mod_installer/../libnx_min/nx//lib/libnx_min.a(fs_dev.o)
 *fill*         0x00000000000029dc        0x4 
 .text.fsdev_mkdir
                0x00000000000029e0       0x70 /home/jam/dev/ultimate/saltynx/arc_mod_installer/../libnx_min/nx//lib/libnx_min.a(fs_dev.o)
 .text.fsdev_rename
                0x0000000000002a50      0x114 /home/jam/dev/ultimate/saltynx/arc_mod_installer/../libnx_min/nx//lib/libnx_min.a(fs_dev.o)
 *fill*         0x0000000000002b64        0xc 
 .text.fsdev_chdir
                0x0000000000002b70       0xe8 /home/jam/dev/ultimate/saltynx/arc_mod_installer/../libnx_min/nx//lib/libnx_min.a(fs_dev.o)
 *fill*         0x0000000000002c58        0x8 
 .text.fsdev_unlink
                0x0000000000002c60       0x70 /home/jam/dev/ultimate/saltynx/arc_mod_installer/../libnx_min/nx//lib/libnx_min.a(fs_dev.o)
 .text.fsdev_stat
                0x0000000000002cd0      0x1bc /home/jam/dev/ultimate/saltynx/arc_mod_installer/../libnx_min/nx//lib/libnx_min.a(fs_dev.o)
 *fill*         0x0000000000002e8c        0x4 
 .text.fsdev_open
                0x0000000000002e90      0x19c /home/jam/dev/ultimate/saltynx/arc_mod_installer/../libnx_min/nx//lib/libnx_min.a(fs_dev.o)
 *fill*         0x000000000000302c        0x4 
 .text._fsdevUnmountDeviceStruct.part.4
                0x0000000000003030       0xb8 /home/jam/dev/ultimate/saltynx/arc_mod_installer/../libnx_min/nx//lib/libnx_min.a(fs_dev.o)
 *fill*         0x00000000000030e8        0x8 
 .text.fsdev_fchmod
                0x00000000000030f0       0x10 /home/jam/dev/ultimate/saltynx/arc_mod_installer/../libnx_min/nx//lib/libnx_min.a(fs_dev.o)
 .text.fsdevMountDevice
                0x0000000000003100       0x14 /home/jam/dev/ultimate/saltynx/arc_mod_installer/../libnx_min/nx//lib/libnx_min.a(fs_dev.o)
                0x0000000000003100                fsdevMountDevice
 *fill*         0x0000000000003114        0xc 
 .text.fsdevUnmountDevice
                0x0000000000003120       0x3c /home/jam/dev/ultimate/saltynx/arc_mod_installer/../libnx_min/nx//lib/libnx_min.a(fs_dev.o)
                0x0000000000003120                fsdevUnmountDevice
 *fill*         0x000000000000315c        0x4 
 .text.fsdevCommitDevice
                0x0000000000003160       0x28 /home/jam/dev/ultimate/saltynx/arc_mod_installer/../libnx_min/nx//lib/libnx_min.a(fs_dev.o)
                0x0000000000003160                fsdevCommitDevice
 *fill*         0x0000000000003188        0x8 
 .text.fsdevSetArchiveBit
                0x0000000000003190       0x68 /home/jam/dev/ultimate/saltynx/arc_mod_installer/../libnx_min/nx//lib/libnx_min.a(fs_dev.o)
                0x0000000000003190                fsdevSetArchiveBit
 *fill*         0x00000000000031f8        0x8 
 .text.fsdevCreateFile
                0x0000000000003200       0x88 /home/jam/dev/ultimate/saltynx/arc_mod_installer/../libnx_min/nx//lib/libnx_min.a(fs_dev.o)
                0x0000000000003200                fsdevCreateFile
 *fill*         0x0000000000003288        0x8 
 .text.fsdevDeleteDirectoryRecursively
                0x0000000000003290       0x68 /home/jam/dev/ultimate/saltynx/arc_mod_installer/../libnx_min/nx//lib/libnx_min.a(fs_dev.o)
                0x0000000000003290                fsdevDeleteDirectoryRecursively
 *fill*         0x00000000000032f8        0x8 
 .text.fsdevMountSdmc
                0x0000000000003300      0x170 /home/jam/dev/ultimate/saltynx/arc_mod_installer/../libnx_min/nx//lib/libnx_min.a(fs_dev.o)
                0x0000000000003300                fsdevMountSdmc
 .text.fsdevUnmountAll
                0x0000000000003470       0x64 /home/jam/dev/ultimate/saltynx/arc_mod_installer/../libnx_min/nx//lib/libnx_min.a(fs_dev.o)
                0x0000000000003470                fsdevUnmountAll
 *fill*         0x00000000000034d4        0xc 
 .text.fsdevGetDeviceFileSystem
                0x00000000000034e0       0x20 /home/jam/dev/ultimate/saltynx/arc_mod_installer/../libnx_min/nx//lib/libnx_min.a(fs_dev.o)
                0x00000000000034e0                fsdevGetDeviceFileSystem
 .text.fsdevGetDefaultFileSystem
                0x0000000000003500       0x40 /home/jam/dev/ultimate/saltynx/arc_mod_installer/../libnx_min/nx//lib/libnx_min.a(fs_dev.o)
                0x0000000000003500                fsdevGetDefaultFileSystem
 .text.fsdevTranslatePath
                0x0000000000003540       0x58 /home/jam/dev/ultimate/saltynx/arc_mod_installer/../libnx_min/nx//lib/libnx_min.a(fs_dev.o)
                0x0000000000003540                fsdevTranslatePath
 *fill*         0x0000000000003598        0x8 
 .text.fsdev_getmtime
                0x00000000000035a0       0x20 /home/jam/dev/ultimate/saltynx/arc_mod_installer/../libnx_min/nx//lib/libnx_min.a(fs_dev.o)
                0x00000000000035a0                fsdev_getmtime
 .text.fsdevGetLastResult
                0x00000000000035c0       0x20 /home/jam/dev/ultimate/saltynx/arc_mod_installer/../libnx_min/nx//lib/libnx_min.a(fs_dev.o)
                0x00000000000035c0                fsdevGetLastResult
 .text.decode_utf8
                0x00000000000035e0      0x12c /home/jam/dev/ultimate/saltynx/arc_mod_installer/../libnx_min/nx//lib/libnx_min.a(decode_utf8.o)
                0x00000000000035e0                decode_utf8
 .text.svcSetHeapSize
                0x000000000000370c       0x14 /home/jam/dev/ultimate/saltynx/arc_mod_installer/../libnx_min/nx//lib/libnx_min.a(svc.o)
                0x000000000000370c                svcSetHeapSize
 .text.svcSetMemoryPermission
                0x0000000000003720        0x8 /home/jam/dev/ultimate/saltynx/arc_mod_installer/../libnx_min/nx//lib/libnx_min.a(svc.o)
                0x0000000000003720                svcSetMemoryPermission
 .text.svcSetMemoryAttribute
                0x0000000000003728        0x8 /home/jam/dev/ultimate/saltynx/arc_mod_installer/../libnx_min/nx//lib/libnx_min.a(svc.o)
                0x0000000000003728                svcSetMemoryAttribute
 .text.svcMapMemory
                0x0000000000003730        0x8 /home/jam/dev/ultimate/saltynx/arc_mod_installer/../libnx_min/nx//lib/libnx_min.a(svc.o)
                0x0000000000003730                svcMapMemory
 .text.svcUnmapMemory
                0x0000000000003738        0x8 /home/jam/dev/ultimate/saltynx/arc_mod_installer/../libnx_min/nx//lib/libnx_min.a(svc.o)
                0x0000000000003738                svcUnmapMemory
 .text.svcQueryMemory
                0x0000000000003740       0x14 /home/jam/dev/ultimate/saltynx/arc_mod_installer/../libnx_min/nx//lib/libnx_min.a(svc.o)
                0x0000000000003740                svcQueryMemory
 .text.svcExitProcess
                0x0000000000003754        0x8 /home/jam/dev/ultimate/saltynx/arc_mod_installer/../libnx_min/nx//lib/libnx_min.a(svc.o)
                0x0000000000003754                svcExitProcess
 .text.svcCreateThread
                0x000000000000375c       0x14 /home/jam/dev/ultimate/saltynx/arc_mod_installer/../libnx_min/nx//lib/libnx_min.a(svc.o)
                0x000000000000375c                svcCreateThread
 .text.svcStartThread
                0x0000000000003770        0x8 /home/jam/dev/ultimate/saltynx/arc_mod_installer/../libnx_min/nx//lib/libnx_min.a(svc.o)
                0x0000000000003770                svcStartThread
 .text.svcExitThread
                0x0000000000003778        0x8 /home/jam/dev/ultimate/saltynx/arc_mod_installer/../libnx_min/nx//lib/libnx_min.a(svc.o)
                0x0000000000003778                svcExitThread
 .text.svcSleepThread
                0x0000000000003780        0x8 /home/jam/dev/ultimate/saltynx/arc_mod_installer/../libnx_min/nx//lib/libnx_min.a(svc.o)
                0x0000000000003780                svcSleepThread
 .text.svcGetThreadPriority
                0x0000000000003788       0x14 /home/jam/dev/ultimate/saltynx/arc_mod_installer/../libnx_min/nx//lib/libnx_min.a(svc.o)
                0x0000000000003788                svcGetThreadPriority
 .text.svcSetThreadPriority
                0x000000000000379c        0x8 /home/jam/dev/ultimate/saltynx/arc_mod_installer/../libnx_min/nx//lib/libnx_min.a(svc.o)
                0x000000000000379c                svcSetThreadPriority
 .text.svcGetThreadCoreMask
                0x00000000000037a4       0x18 /home/jam/dev/ultimate/saltynx/arc_mod_installer/../libnx_min/nx//lib/libnx_min.a(svc.o)
                0x00000000000037a4                svcGetThreadCoreMask
 .text.svcSetThreadCoreMask
                0x00000000000037bc        0x8 /home/jam/dev/ultimate/saltynx/arc_mod_installer/../libnx_min/nx//lib/libnx_min.a(svc.o)
                0x00000000000037bc                svcSetThreadCoreMask
 .text.svcGetCurrentProcessorNumber
                0x00000000000037c4        0x8 /home/jam/dev/ultimate/saltynx/arc_mod_installer/../libnx_min/nx//lib/libnx_min.a(svc.o)
                0x00000000000037c4                svcGetCurrentProcessorNumber
 .text.svcSignalEvent
                0x00000000000037cc        0x8 /home/jam/dev/ultimate/saltynx/arc_mod_installer/../libnx_min/nx//lib/libnx_min.a(svc.o)
                0x00000000000037cc                svcSignalEvent
 .text.svcClearEvent
                0x00000000000037d4        0x8 /home/jam/dev/ultimate/saltynx/arc_mod_installer/../libnx_min/nx//lib/libnx_min.a(svc.o)
                0x00000000000037d4                svcClearEvent
 .text.svcMapSharedMemory
                0x00000000000037dc        0x8 /home/jam/dev/ultimate/saltynx/arc_mod_installer/../libnx_min/nx//lib/libnx_min.a(svc.o)
                0x00000000000037dc                svcMapSharedMemory
 .text.svcUnmapSharedMemory
                0x00000000000037e4        0x8 /home/jam/dev/ultimate/saltynx/arc_mod_installer/../libnx_min/nx//lib/libnx_min.a(svc.o)
                0x00000000000037e4                svcUnmapSharedMemory
 .text.svcCreateTransferMemory
                0x00000000000037ec       0x14 /home/jam/dev/ultimate/saltynx/arc_mod_installer/../libnx_min/nx//lib/libnx_min.a(svc.o)
                0x00000000000037ec                svcCreateTransferMemory
 .text.svcCloseHandle
                0x0000000000003800        0x8 /home/jam/dev/ultimate/saltynx/arc_mod_installer/../libnx_min/nx//lib/libnx_min.a(svc.o)
                0x0000000000003800                svcCloseHandle
 .text.svcResetSignal
                0x0000000000003808        0x8 /home/jam/dev/ultimate/saltynx/arc_mod_installer/../libnx_min/nx//lib/libnx_min.a(svc.o)
                0x0000000000003808                svcResetSignal
 .text.svcWaitSynchronization
                0x0000000000003810       0x14 /home/jam/dev/ultimate/saltynx/arc_mod_installer/../libnx_min/nx//lib/libnx_min.a(svc.o)
                0x0000000000003810                svcWaitSynchronization
 .text.svcCancelSynchronization
                0x0000000000003824        0x8 /home/jam/dev/ultimate/saltynx/arc_mod_installer/../libnx_min/nx//lib/libnx_min.a(svc.o)
                0x0000000000003824                svcCancelSynchronization
 .text.svcArbitrateLock
                0x000000000000382c        0x8 /home/jam/dev/ultimate/saltynx/arc_mod_installer/../libnx_min/nx//lib/libnx_min.a(svc.o)
                0x000000000000382c                svcArbitrateLock
 .text.svcArbitrateUnlock
                0x0000000000003834        0x8 /home/jam/dev/ultimate/saltynx/arc_mod_installer/../libnx_min/nx//lib/libnx_min.a(svc.o)
                0x0000000000003834                svcArbitrateUnlock
 .text.svcWaitProcessWideKeyAtomic
                0x000000000000383c        0x8 /home/jam/dev/ultimate/saltynx/arc_mod_installer/../libnx_min/nx//lib/libnx_min.a(svc.o)
                0x000000000000383c                svcWaitProcessWideKeyAtomic
 .text.svcSignalProcessWideKey
                0x0000000000003844        0x8 /home/jam/dev/ultimate/saltynx/arc_mod_installer/../libnx_min/nx//lib/libnx_min.a(svc.o)
                0x0000000000003844                svcSignalProcessWideKey
 .text.svcGetSystemTick
                0x000000000000384c        0x8 /home/jam/dev/ultimate/saltynx/arc_mod_installer/../libnx_min/nx//lib/libnx_min.a(svc.o)
                0x000000000000384c                svcGetSystemTick
 .text.svcConnectToNamedPort
                0x0000000000003854       0x14 /home/jam/dev/ultimate/saltynx/arc_mod_installer/../libnx_min/nx//lib/libnx_min.a(svc.o)
                0x0000000000003854                svcConnectToNamedPort
 .text.svcSendSyncRequest
                0x0000000000003868        0x8 /home/jam/dev/ultimate/saltynx/arc_mod_installer/../libnx_min/nx//lib/libnx_min.a(svc.o)
                0x0000000000003868                svcSendSyncRequest
 .text.svcSendSyncRequestWithUserBuffer
                0x0000000000003870        0x8 /home/jam/dev/ultimate/saltynx/arc_mod_installer/../libnx_min/nx//lib/libnx_min.a(svc.o)
                0x0000000000003870                svcSendSyncRequestWithUserBuffer
 .text.svcSendAsyncRequestWithUserBuffer
                0x0000000000003878       0x14 /home/jam/dev/ultimate/saltynx/arc_mod_installer/../libnx_min/nx//lib/libnx_min.a(svc.o)
                0x0000000000003878                svcSendAsyncRequestWithUserBuffer
 .text.svcGetProcessId
                0x000000000000388c       0x14 /home/jam/dev/ultimate/saltynx/arc_mod_installer/../libnx_min/nx//lib/libnx_min.a(svc.o)
                0x000000000000388c                svcGetProcessId
 .text.svcGetThreadId
                0x00000000000038a0       0x14 /home/jam/dev/ultimate/saltynx/arc_mod_installer/../libnx_min/nx//lib/libnx_min.a(svc.o)
                0x00000000000038a0                svcGetThreadId
 .text.svcBreak
                0x00000000000038b4        0x8 /home/jam/dev/ultimate/saltynx/arc_mod_installer/../libnx_min/nx//lib/libnx_min.a(svc.o)
                0x00000000000038b4                svcBreak
 .text.svcOutputDebugString
                0x00000000000038bc        0x8 /home/jam/dev/ultimate/saltynx/arc_mod_installer/../libnx_min/nx//lib/libnx_min.a(svc.o)
                0x00000000000038bc                svcOutputDebugString
 .text.svcReturnFromException
                0x00000000000038c4        0x8 /home/jam/dev/ultimate/saltynx/arc_mod_installer/../libnx_min/nx//lib/libnx_min.a(svc.o)
                0x00000000000038c4                svcReturnFromException
 .text.svcGetInfo
                0x00000000000038cc       0x14 /home/jam/dev/ultimate/saltynx/arc_mod_installer/../libnx_min/nx//lib/libnx_min.a(svc.o)
                0x00000000000038cc                svcGetInfo
 .text.svcMapPhysicalMemory
                0x00000000000038e0        0x8 /home/jam/dev/ultimate/saltynx/arc_mod_installer/../libnx_min/nx//lib/libnx_min.a(svc.o)
                0x00000000000038e0                svcMapPhysicalMemory
 .text.svcUnmapPhysicalMemory
                0x00000000000038e8        0x8 /home/jam/dev/ultimate/saltynx/arc_mod_installer/../libnx_min/nx//lib/libnx_min.a(svc.o)
                0x00000000000038e8                svcUnmapPhysicalMemory
 .text.svcGetResourceLimitLimitValue
                0x00000000000038f0       0x14 /home/jam/dev/ultimate/saltynx/arc_mod_installer/../libnx_min/nx//lib/libnx_min.a(svc.o)
                0x00000000000038f0                svcGetResourceLimitLimitValue
 .text.svcGetResourceLimitCurrentValue
                0x0000000000003904       0x14 /home/jam/dev/ultimate/saltynx/arc_mod_installer/../libnx_min/nx//lib/libnx_min.a(svc.o)
                0x0000000000003904                svcGetResourceLimitCurrentValue
 .text.svcSetThreadActivity
                0x0000000000003918        0x8 /home/jam/dev/ultimate/saltynx/arc_mod_installer/../libnx_min/nx//lib/libnx_min.a(svc.o)
                0x0000000000003918                svcSetThreadActivity
 .text.svcGetThreadContext3
                0x0000000000003920        0x8 /home/jam/dev/ultimate/saltynx/arc_mod_installer/../libnx_min/nx//lib/libnx_min.a(svc.o)
                0x0000000000003920                svcGetThreadContext3
 .text.svcCreateSession
                0x0000000000003928       0x18 /home/jam/dev/ultimate/saltynx/arc_mod_installer/../libnx_min/nx//lib/libnx_min.a(svc.o)
                0x0000000000003928                svcCreateSession
 .text.svcAcceptSession
                0x0000000000003940       0x14 /home/jam/dev/ultimate/saltynx/arc_mod_installer/../libnx_min/nx//lib/libnx_min.a(svc.o)
                0x0000000000003940                svcAcceptSession
 .text.svcReplyAndReceive
                0x0000000000003954       0x14 /home/jam/dev/ultimate/saltynx/arc_mod_installer/../libnx_min/nx//lib/libnx_min.a(svc.o)
                0x0000000000003954                svcReplyAndReceive
 .text.svcReplyAndReceiveWithUserBuffer
                0x0000000000003968       0x14 /home/jam/dev/ultimate/saltynx/arc_mod_installer/../libnx_min/nx//lib/libnx_min.a(svc.o)
                0x0000000000003968                svcReplyAndReceiveWithUserBuffer
 .text.svcCreateEvent
                0x000000000000397c       0x18 /home/jam/dev/ultimate/saltynx/arc_mod_installer/../libnx_min/nx//lib/libnx_min.a(svc.o)
                0x000000000000397c                svcCreateEvent
 .text.svcMapPhysicalMemoryUnsafe
                0x0000000000003994        0x8 /home/jam/dev/ultimate/saltynx/arc_mod_installer/../libnx_min/nx//lib/libnx_min.a(svc.o)
                0x0000000000003994                svcMapPhysicalMemoryUnsafe
 .text.svcUnmapPhysicalMemoryUnsafe
                0x000000000000399c        0x8 /home/jam/dev/ultimate/saltynx/arc_mod_installer/../libnx_min/nx//lib/libnx_min.a(svc.o)
                0x000000000000399c                svcUnmapPhysicalMemoryUnsafe
 .text.svcSetUnsafeLimit
                0x00000000000039a4        0x8 /home/jam/dev/ultimate/saltynx/arc_mod_installer/../libnx_min/nx//lib/libnx_min.a(svc.o)
                0x00000000000039a4                svcSetUnsafeLimit
 .text.svcCreateCodeMemory
                0x00000000000039ac       0x14 /home/jam/dev/ultimate/saltynx/arc_mod_installer/../libnx_min/nx//lib/libnx_min.a(svc.o)
                0x00000000000039ac                svcCreateCodeMemory
 .text.svcControlCodeMemory
                0x00000000000039c0        0x8 /home/jam/dev/ultimate/saltynx/arc_mod_installer/../libnx_min/nx//lib/libnx_min.a(svc.o)
                0x00000000000039c0                svcControlCodeMemory
 .text.svcReadWriteRegister
                0x00000000000039c8       0x14 /home/jam/dev/ultimate/saltynx/arc_mod_installer/../libnx_min/nx//lib/libnx_min.a(svc.o)
                0x00000000000039c8                svcReadWriteRegister
 .text.svcCreateSharedMemory
                0x00000000000039dc       0x14 /home/jam/dev/ultimate/saltynx/arc_mod_installer/../libnx_min/nx//lib/libnx_min.a(svc.o)
                0x00000000000039dc                svcCreateSharedMemory
 .text.svcMapTransferMemory
                0x00000000000039f0        0x8 /home/jam/dev/ultimate/saltynx/arc_mod_installer/../libnx_min/nx//lib/libnx_min.a(svc.o)
                0x00000000000039f0                svcMapTransferMemory
 .text.svcUnmapTransferMemory
                0x00000000000039f8        0x8 /home/jam/dev/ultimate/saltynx/arc_mod_installer/../libnx_min/nx//lib/libnx_min.a(svc.o)
                0x00000000000039f8                svcUnmapTransferMemory
 .text.svcCreateInterruptEvent
                0x0000000000003a00       0x14 /home/jam/dev/ultimate/saltynx/arc_mod_installer/../libnx_min/nx//lib/libnx_min.a(svc.o)
                0x0000000000003a00                svcCreateInterruptEvent
 .text.svcQueryPhysicalAddress
                0x0000000000003a14       0x18 /home/jam/dev/ultimate/saltynx/arc_mod_installer/../libnx_min/nx//lib/libnx_min.a(svc.o)
                0x0000000000003a14                svcQueryPhysicalAddress
 .text.svcQueryIoMapping
                0x0000000000003a2c       0x14 /home/jam/dev/ultimate/saltynx/arc_mod_installer/../libnx_min/nx//lib/libnx_min.a(svc.o)
                0x0000000000003a2c                svcQueryIoMapping
 .text.svcCreateDeviceAddressSpace
                0x0000000000003a40       0x14 /home/jam/dev/ultimate/saltynx/arc_mod_installer/../libnx_min/nx//lib/libnx_min.a(svc.o)
                0x0000000000003a40                svcCreateDeviceAddressSpace
 .text.svcAttachDeviceAddressSpace
                0x0000000000003a54        0x8 /home/jam/dev/ultimate/saltynx/arc_mod_installer/../libnx_min/nx//lib/libnx_min.a(svc.o)
                0x0000000000003a54                svcAttachDeviceAddressSpace
 .text.svcDetachDeviceAddressSpace
                0x0000000000003a5c        0x8 /home/jam/dev/ultimate/saltynx/arc_mod_installer/../libnx_min/nx//lib/libnx_min.a(svc.o)
                0x0000000000003a5c                svcDetachDeviceAddressSpace
 .text.svcMapDeviceAddressSpaceByForce
                0x0000000000003a64        0x8 /home/jam/dev/ultimate/saltynx/arc_mod_installer/../libnx_min/nx//lib/libnx_min.a(svc.o)
                0x0000000000003a64                svcMapDeviceAddressSpaceByForce
 .text.svcMapDeviceAddressSpaceAligned
                0x0000000000003a6c        0x8 /home/jam/dev/ultimate/saltynx/arc_mod_installer/../libnx_min/nx//lib/libnx_min.a(svc.o)
                0x0000000000003a6c                svcMapDeviceAddressSpaceAligned
 .text.svcUnmapDeviceAddressSpace
                0x0000000000003a74        0x8 /home/jam/dev/ultimate/saltynx/arc_mod_installer/../libnx_min/nx//lib/libnx_min.a(svc.o)
                0x0000000000003a74                svcUnmapDeviceAddressSpace
 .text.svcDebugActiveProcess
                0x0000000000003a7c       0x14 /home/jam/dev/ultimate/saltynx/arc_mod_installer/../libnx_min/nx//lib/libnx_min.a(svc.o)
                0x0000000000003a7c                svcDebugActiveProcess
 .text.svcBreakDebugProcess
                0x0000000000003a90        0x8 /home/jam/dev/ultimate/saltynx/arc_mod_installer/../libnx_min/nx//lib/libnx_min.a(svc.o)
                0x0000000000003a90                svcBreakDebugProcess
 .text.svcTerminateDebugProcess
                0x0000000000003a98        0x8 /home/jam/dev/ultimate/saltynx/arc_mod_installer/../libnx_min/nx//lib/libnx_min.a(svc.o)
                0x0000000000003a98                svcTerminateDebugProcess
 .text.svcGetDebugEvent
                0x0000000000003aa0        0x8 /home/jam/dev/ultimate/saltynx/arc_mod_installer/../libnx_min/nx//lib/libnx_min.a(svc.o)
                0x0000000000003aa0                svcGetDebugEvent
 .text.svcLegacyContinueDebugEvent
                0x0000000000003aa8        0x8 /home/jam/dev/ultimate/saltynx/arc_mod_installer/../libnx_min/nx//lib/libnx_min.a(svc.o)
                0x0000000000003aa8                svcLegacyContinueDebugEvent
 .text.svcContinueDebugEvent
                0x0000000000003ab0        0x8 /home/jam/dev/ultimate/saltynx/arc_mod_installer/../libnx_min/nx//lib/libnx_min.a(svc.o)
                0x0000000000003ab0                svcContinueDebugEvent
 .text.svcGetProcessList
                0x0000000000003ab8       0x14 /home/jam/dev/ultimate/saltynx/arc_mod_installer/../libnx_min/nx//lib/libnx_min.a(svc.o)
                0x0000000000003ab8                svcGetProcessList
 .text.svcGetThreadList
                0x0000000000003acc       0x14 /home/jam/dev/ultimate/saltynx/arc_mod_installer/../libnx_min/nx//lib/libnx_min.a(svc.o)
                0x0000000000003acc                svcGetThreadList
 .text.svcGetDebugThreadContext
                0x0000000000003ae0        0x8 /home/jam/dev/ultimate/saltynx/arc_mod_installer/../libnx_min/nx//lib/libnx_min.a(svc.o)
                0x0000000000003ae0                svcGetDebugThreadContext
 .text.svcSetDebugThreadContext
                0x0000000000003ae8        0x8 /home/jam/dev/ultimate/saltynx/arc_mod_installer/../libnx_min/nx//lib/libnx_min.a(svc.o)
                0x0000000000003ae8                svcSetDebugThreadContext
 .text.svcQueryDebugProcessMemory
                0x0000000000003af0       0x14 /home/jam/dev/ultimate/saltynx/arc_mod_installer/../libnx_min/nx//lib/libnx_min.a(svc.o)
                0x0000000000003af0                svcQueryDebugProcessMemory
 .text.svcReadDebugProcessMemory
                0x0000000000003b04        0x8 /home/jam/dev/ultimate/saltynx/arc_mod_installer/../libnx_min/nx//lib/libnx_min.a(svc.o)
                0x0000000000003b04                svcReadDebugProcessMemory
 .text.svcWriteDebugProcessMemory
                0x0000000000003b0c        0x8 /home/jam/dev/ultimate/saltynx/arc_mod_installer/../libnx_min/nx//lib/libnx_min.a(svc.o)
                0x0000000000003b0c                svcWriteDebugProcessMemory
 .text.svcGetDebugThreadParam
                0x0000000000003b14       0x18 /home/jam/dev/ultimate/saltynx/arc_mod_installer/../libnx_min/nx//lib/libnx_min.a(svc.o)
                0x0000000000003b14                svcGetDebugThreadParam
 .text.svcGetSystemInfo
                0x0000000000003b2c       0x14 /home/jam/dev/ultimate/saltynx/arc_mod_installer/../libnx_min/nx//lib/libnx_min.a(svc.o)
                0x0000000000003b2c                svcGetSystemInfo
 .text.svcCreatePort
                0x0000000000003b40       0x18 /home/jam/dev/ultimate/saltynx/arc_mod_installer/../libnx_min/nx//lib/libnx_min.a(svc.o)
                0x0000000000003b40                svcCreatePort
 .text.svcManageNamedPort
                0x0000000000003b58       0x14 /home/jam/dev/ultimate/saltynx/arc_mod_installer/../libnx_min/nx//lib/libnx_min.a(svc.o)
                0x0000000000003b58                svcManageNamedPort
 .text.svcConnectToPort
                0x0000000000003b6c       0x14 /home/jam/dev/ultimate/saltynx/arc_mod_installer/../libnx_min/nx//lib/libnx_min.a(svc.o)
                0x0000000000003b6c                svcConnectToPort
 .text.svcSetProcessMemoryPermission
                0x0000000000003b80        0x8 /home/jam/dev/ultimate/saltynx/arc_mod_installer/../libnx_min/nx//lib/libnx_min.a(svc.o)
                0x0000000000003b80                svcSetProcessMemoryPermission
 .text.svcMapProcessMemory
                0x0000000000003b88        0x8 /home/jam/dev/ultimate/saltynx/arc_mod_installer/../libnx_min/nx//lib/libnx_min.a(svc.o)
                0x0000000000003b88                svcMapProcessMemory
 .text.svcUnmapProcessMemory
                0x0000000000003b90        0x8 /home/jam/dev/ultimate/saltynx/arc_mod_installer/../libnx_min/nx//lib/libnx_min.a(svc.o)
                0x0000000000003b90                svcUnmapProcessMemory
 .text.svcQueryProcessMemory
                0x0000000000003b98       0x14 /home/jam/dev/ultimate/saltynx/arc_mod_installer/../libnx_min/nx//lib/libnx_min.a(svc.o)
                0x0000000000003b98                svcQueryProcessMemory
 .text.svcMapProcessCodeMemory
                0x0000000000003bac        0x8 /home/jam/dev/ultimate/saltynx/arc_mod_installer/../libnx_min/nx//lib/libnx_min.a(svc.o)
                0x0000000000003bac                svcMapProcessCodeMemory
 .text.svcUnmapProcessCodeMemory
                0x0000000000003bb4        0x8 /home/jam/dev/ultimate/saltynx/arc_mod_installer/../libnx_min/nx//lib/libnx_min.a(svc.o)
                0x0000000000003bb4                svcUnmapProcessCodeMemory
 .text.svcCreateProcess
                0x0000000000003bbc       0x14 /home/jam/dev/ultimate/saltynx/arc_mod_installer/../libnx_min/nx//lib/libnx_min.a(svc.o)
                0x0000000000003bbc                svcCreateProcess
 .text.svcStartProcess
                0x0000000000003bd0        0x8 /home/jam/dev/ultimate/saltynx/arc_mod_installer/../libnx_min/nx//lib/libnx_min.a(svc.o)
                0x0000000000003bd0                svcStartProcess
 .text.svcTerminateProcess
                0x0000000000003bd8        0x8 /home/jam/dev/ultimate/saltynx/arc_mod_installer/../libnx_min/nx//lib/libnx_min.a(svc.o)
                0x0000000000003bd8                svcTerminateProcess
 .text.svcGetProcessInfo
                0x0000000000003be0       0x14 /home/jam/dev/ultimate/saltynx/arc_mod_installer/../libnx_min/nx//lib/libnx_min.a(svc.o)
                0x0000000000003be0                svcGetProcessInfo
 .text.svcCreateResourceLimit
                0x0000000000003bf4       0x14 /home/jam/dev/ultimate/saltynx/arc_mod_installer/../libnx_min/nx//lib/libnx_min.a(svc.o)
                0x0000000000003bf4                svcCreateResourceLimit
 .text.svcSetResourceLimitLimitValue
                0x0000000000003c08        0x8 /home/jam/dev/ultimate/saltynx/arc_mod_installer/../libnx_min/nx//lib/libnx_min.a(svc.o)
                0x0000000000003c08                svcSetResourceLimitLimitValue
 .text.svcCallSecureMonitor
                0x0000000000003c10       0x34 /home/jam/dev/ultimate/saltynx/arc_mod_installer/../libnx_min/nx//lib/libnx_min.a(svc.o)
                0x0000000000003c10                svcCallSecureMonitor
 .text.__libnx_exception_entry
                0x0000000000003c44      0x1c0 /home/jam/dev/ultimate/saltynx/arc_mod_installer/../libnx_min/nx//lib/libnx_min.a(exception.o)
                0x0000000000003c44                __libnx_exception_entry
 .text.__libnx_exception_returnentry
                0x0000000000003e04       0x18 /home/jam/dev/ultimate/saltynx/arc_mod_installer/../libnx_min/nx//lib/libnx_min.a(exception.o)
                0x0000000000003e04                __libnx_exception_returnentry
 .text.__aarch64_read_tp
                0x0000000000003e1c        0xc /home/jam/dev/ultimate/saltynx/arc_mod_installer/../libnx_min/nx//lib/libnx_min.a(readtp.o)
                0x0000000000003e1c                __aarch64_read_tp
 *fill*         0x0000000000003e28        0x8 
 .text.mutexLock
                0x0000000000003e30       0x8c /home/jam/dev/ultimate/saltynx/arc_mod_installer/../libnx_min/nx//lib/libnx_min.a(mutex.o)
                0x0000000000003e30                mutexLock
 *fill*         0x0000000000003ebc        0x4 
 .text.mutexTryLock
                0x0000000000003ec0       0x34 /home/jam/dev/ultimate/saltynx/arc_mod_installer/../libnx_min/nx//lib/libnx_min.a(mutex.o)
                0x0000000000003ec0                mutexTryLock
 *fill*         0x0000000000003ef4        0xc 
 .text.mutexUnlock
                0x0000000000003f00       0x30 /home/jam/dev/ultimate/saltynx/arc_mod_installer/../libnx_min/nx//lib/libnx_min.a(mutex.o)
                0x0000000000003f00                mutexUnlock
 .text.rmutexLock
                0x0000000000003f30       0x4c /home/jam/dev/ultimate/saltynx/arc_mod_installer/../libnx_min/nx//lib/libnx_min.a(mutex.o)
                0x0000000000003f30                rmutexLock
 *fill*         0x0000000000003f7c        0x4 
 .text.rmutexTryLock
                0x0000000000003f80       0x5c /home/jam/dev/ultimate/saltynx/arc_mod_installer/../libnx_min/nx//lib/libnx_min.a(mutex.o)
                0x0000000000003f80                rmutexTryLock
 *fill*         0x0000000000003fdc        0x4 
 .text.rmutexUnlock
                0x0000000000003fe0       0x1c /home/jam/dev/ultimate/saltynx/arc_mod_installer/../libnx_min/nx//lib/libnx_min.a(mutex.o)
                0x0000000000003fe0                rmutexUnlock
 *fill*         0x0000000000003ffc        0x4 
 .text._GetRegionFromInfo.isra.1
                0x0000000000004000       0x7c /home/jam/dev/ultimate/saltynx/arc_mod_installer/../libnx_min/nx//lib/libnx_min.a(virtmem.o)
 *fill*         0x000000000000407c        0x4 
 .text.virtmemSetup
                0x0000000000004080      0x114 /home/jam/dev/ultimate/saltynx/arc_mod_installer/../libnx_min/nx//lib/libnx_min.a(virtmem.o)
                0x0000000000004080                virtmemSetup
 *fill*         0x0000000000004194        0xc 
 .text.virtmemReserve
                0x00000000000041a0      0x13c /home/jam/dev/ultimate/saltynx/arc_mod_installer/../libnx_min/nx//lib/libnx_min.a(virtmem.o)
                0x00000000000041a0                virtmemReserve
 *fill*         0x00000000000042dc        0x4 
 .text.virtmemFree
                0x00000000000042e0        0x4 /home/jam/dev/ultimate/saltynx/arc_mod_installer/../libnx_min/nx//lib/libnx_min.a(virtmem.o)
                0x00000000000042e0                virtmemFree
 *fill*         0x00000000000042e4        0xc 
 .text.virtmemReserveStack
                0x00000000000042f0       0xc8 /home/jam/dev/ultimate/saltynx/arc_mod_installer/../libnx_min/nx//lib/libnx_min.a(virtmem.o)
                0x00000000000042f0                virtmemReserveStack
 *fill*         0x00000000000043b8        0x8 
 .text.virtmemFreeStack
                0x00000000000043c0        0x4 /home/jam/dev/ultimate/saltynx/arc_mod_installer/../libnx_min/nx//lib/libnx_min.a(virtmem.o)
                0x00000000000043c0                virtmemFreeStack
 *fill*         0x00000000000043c4        0xc 
 .text.condvarWaitTimeout
                0x00000000000043d0       0x60 /home/jam/dev/ultimate/saltynx/arc_mod_installer/../libnx_min/nx//lib/libnx_min.a(condvar.o)
                0x00000000000043d0                condvarWaitTimeout
 .text.threadCreate
                0x0000000000004430      0x1fc /home/jam/dev/ultimate/saltynx/arc_mod_installer/../libnx_min/nx//lib/libnx_min.a(thread.o)
                0x0000000000004430                threadCreate
 *fill*         0x000000000000462c        0x4 
 .text.threadExit
                0x0000000000004630       0xb0 /home/jam/dev/ultimate/saltynx/arc_mod_installer/../libnx_min/nx//lib/libnx_min.a(thread.o)
                0x0000000000004630                threadExit
 .text._EntryWrap
                0x00000000000046e0       0x90 /home/jam/dev/ultimate/saltynx/arc_mod_installer/../libnx_min/nx//lib/libnx_min.a(thread.o)
 .text.threadStart
                0x0000000000004770        0x8 /home/jam/dev/ultimate/saltynx/arc_mod_installer/../libnx_min/nx//lib/libnx_min.a(thread.o)
                0x0000000000004770                threadStart
 *fill*         0x0000000000004778        0x8 
 .text.threadWaitForExit
                0x0000000000004780       0x2c /home/jam/dev/ultimate/saltynx/arc_mod_installer/../libnx_min/nx//lib/libnx_min.a(thread.o)
                0x0000000000004780                threadWaitForExit
 *fill*         0x00000000000047ac        0x4 
 .text.threadClose
                0x00000000000047b0       0x54 /home/jam/dev/ultimate/saltynx/arc_mod_installer/../libnx_min/nx//lib/libnx_min.a(thread.o)
                0x00000000000047b0                threadClose
 *fill*         0x0000000000004804        0xc 
 .text.threadPause
                0x0000000000004810        0xc /home/jam/dev/ultimate/saltynx/arc_mod_installer/../libnx_min/nx//lib/libnx_min.a(thread.o)
                0x0000000000004810                threadPause
 *fill*         0x000000000000481c        0x4 
 .text.threadResume
                0x0000000000004820        0xc /home/jam/dev/ultimate/saltynx/arc_mod_installer/../libnx_min/nx//lib/libnx_min.a(thread.o)
                0x0000000000004820                threadResume
 *fill*         0x000000000000482c        0x4 
 .text.threadDumpContext
                0x0000000000004830        0x8 /home/jam/dev/ultimate/saltynx/arc_mod_installer/../libnx_min/nx//lib/libnx_min.a(thread.o)
                0x0000000000004830                threadDumpContext
 *fill*         0x0000000000004838        0x8 
 .text.threadGetCurHandle
                0x0000000000004840        0xc /home/jam/dev/ultimate/saltynx/arc_mod_installer/../libnx_min/nx//lib/libnx_min.a(thread.o)
                0x0000000000004840                threadGetCurHandle
 *fill*         0x000000000000484c        0x4 
 .text.threadTlsGet
                0x0000000000004850       0x10 /home/jam/dev/ultimate/saltynx/arc_mod_installer/../libnx_min/nx//lib/libnx_min.a(thread.o)
                0x0000000000004850                threadTlsGet
 .text.threadTlsSet
                0x0000000000004860       0x10 /home/jam/dev/ultimate/saltynx/arc_mod_installer/../libnx_min/nx//lib/libnx_min.a(thread.o)
                0x0000000000004860                threadTlsSet
 .text.threadTlsAlloc
                0x0000000000004870       0xd8 /home/jam/dev/ultimate/saltynx/arc_mod_installer/../libnx_min/nx//lib/libnx_min.a(thread.o)
                0x0000000000004870                threadTlsAlloc
 *fill*         0x0000000000004948        0x8 
 .text.threadTlsFree
                0x0000000000004950       0x48 /home/jam/dev/ultimate/saltynx/arc_mod_installer/../libnx_min/nx//lib/libnx_min.a(thread.o)
                0x0000000000004950                threadTlsFree
 *fill*         0x0000000000004998        0x8 
 .text.ipcPrepareHeader
                0x00000000000049a0      0x220 /home/jam/dev/ultimate/saltynx/arc_mod_installer/../libnx_min/nx//lib/libnx_min.a(applet.o)
 .text.ipcParse
                0x0000000000004bc0      0x22c /home/jam/dev/ultimate/saltynx/arc_mod_installer/../libnx_min/nx//lib/libnx_min.a(applet.o)
 *fill*         0x0000000000004dec        0x4 
 .text.serviceIpcParse
                0x0000000000004df0       0xb0 /home/jam/dev/ultimate/saltynx/arc_mod_installer/../libnx_min/nx//lib/libnx_min.a(applet.o)
 .text.ipcConvertSessionToDomain
                0x0000000000004ea0       0x78 /home/jam/dev/ultimate/saltynx/arc_mod_installer/../libnx_min/nx//lib/libnx_min.a(applet.o)
 *fill*         0x0000000000004f18        0x8 
 .text.ipcQueryPointerBufferSize
                0x0000000000004f20       0x7c /home/jam/dev/ultimate/saltynx/arc_mod_installer/../libnx_min/nx//lib/libnx_min.a(applet.o)
 *fill*         0x0000000000004f9c        0x4 
 .text.ipcCloneSession.constprop.52
                0x0000000000004fa0       0x84 /home/jam/dev/ultimate/saltynx/arc_mod_installer/../libnx_min/nx//lib/libnx_min.a(applet.o)
 *fill*         0x0000000000005024        0xc 
 .text.ipcCloseObjectById
                0x0000000000005030       0x34 /home/jam/dev/ultimate/saltynx/arc_mod_installer/../libnx_min/nx//lib/libnx_min.a(applet.o)
 *fill*         0x0000000000005064        0xc 
 .text.serviceClose
                0x0000000000005070       0x6c /home/jam/dev/ultimate/saltynx/arc_mod_installer/../libnx_min/nx//lib/libnx_min.a(applet.o)
 *fill*         0x00000000000050dc        0x4 
 .text._appletCmdInHandle64
                0x00000000000050e0      0x204 /home/jam/dev/ultimate/saltynx/arc_mod_installer/../libnx_min/nx//lib/libnx_min.a(applet.o)
 *fill*         0x00000000000052e4        0xc 
 .text._appletReceiveMessage
                0x00000000000052f0      0x19c /home/jam/dev/ultimate/saltynx/arc_mod_installer/../libnx_min/nx//lib/libnx_min.a(applet.o)
 *fill*         0x000000000000548c        0x4 
 .text._appletCmdNoIO
                0x0000000000005490      0x164 /home/jam/dev/ultimate/saltynx/arc_mod_installer/../libnx_min/nx//lib/libnx_min.a(applet.o)
 *fill*         0x00000000000055f4        0xc 
 .text._appletGetOperationMode.constprop.43
                0x0000000000005600      0x18c /home/jam/dev/ultimate/saltynx/arc_mod_installer/../libnx_min/nx//lib/libnx_min.a(applet.o)
 *fill*         0x000000000000578c        0x4 
 .text._appletGetCurrentFocusState.constprop.45
                0x0000000000005790      0x18c /home/jam/dev/ultimate/saltynx/arc_mod_installer/../libnx_min/nx//lib/libnx_min.a(applet.o)
 *fill*         0x000000000000591c        0x4 
 .text._appletGetPerformanceMode.constprop.44
                0x0000000000005920      0x18c /home/jam/dev/ultimate/saltynx/arc_mod_installer/../libnx_min/nx//lib/libnx_min.a(applet.o)
 *fill*         0x0000000000005aac        0x4 
 .text._appletCmdNoInOutBool
                0x0000000000005ab0      0x184 /home/jam/dev/ultimate/saltynx/arc_mod_installer/../libnx_min/nx//lib/libnx_min.a(applet.o)
 *fill*         0x0000000000005c34        0xc 
 .text._appletGetSession
                0x0000000000005c40      0x1d8 /home/jam/dev/ultimate/saltynx/arc_mod_installer/../libnx_min/nx//lib/libnx_min.a(applet.o)
 *fill*         0x0000000000005e18        0x8 
 .text._appletCmdNoInOut64
                0x0000000000005e20      0x17c /home/jam/dev/ultimate/saltynx/arc_mod_installer/../libnx_min/nx//lib/libnx_min.a(applet.o)
 *fill*         0x0000000000005f9c        0x4 
 .text._appletSetOperationModeChangedNotification.constprop.46
                0x0000000000005fa0      0x164 /home/jam/dev/ultimate/saltynx/arc_mod_installer/../libnx_min/nx//lib/libnx_min.a(applet.o)
 *fill*         0x0000000000006104        0xc 
 .text._appletCmdInU8
                0x0000000000006110      0x17c /home/jam/dev/ultimate/saltynx/arc_mod_installer/../libnx_min/nx//lib/libnx_min.a(applet.o)
 *fill*         0x000000000000628c        0x4 
 .text._appletSetOutOfFocusSuspendingEnabled
                0x0000000000006290      0x16c /home/jam/dev/ultimate/saltynx/arc_mod_installer/../libnx_min/nx//lib/libnx_min.a(applet.o)
 *fill*         0x00000000000063fc        0x4 
 .text._appletSetPerformanceModeChangedNotification.constprop.47
                0x0000000000006400      0x164 /home/jam/dev/ultimate/saltynx/arc_mod_installer/../libnx_min/nx//lib/libnx_min.a(applet.o)
 *fill*         0x0000000000006564        0xc 
 .text._appletCmdInU64.constprop.37
                0x0000000000006570      0x16c /home/jam/dev/ultimate/saltynx/arc_mod_installer/../libnx_min/nx//lib/libnx_min.a(applet.o)
 *fill*         0x00000000000066dc        0x4 
 .text._appletCmdInU32.constprop.48
                0x00000000000066e0      0x16c /home/jam/dev/ultimate/saltynx/arc_mod_installer/../libnx_min/nx//lib/libnx_min.a(applet.o)
 *fill*         0x000000000000684c        0x4 
 .text._appletSetFocusHandlingMode
                0x0000000000006850      0x17c /home/jam/dev/ultimate/saltynx/arc_mod_installer/../libnx_min/nx//lib/libnx_min.a(applet.o)
 *fill*         0x00000000000069cc        0x4 
 .text._appletGetHandle.constprop.42
                0x00000000000069d0      0x178 /home/jam/dev/ultimate/saltynx/arc_mod_installer/../libnx_min/nx//lib/libnx_min.a(applet.o)
 *fill*         0x0000000000006b48        0x8 
 .text._appletGetEvent.constprop.41
                0x0000000000006b50       0x54 /home/jam/dev/ultimate/saltynx/arc_mod_installer/../libnx_min/nx//lib/libnx_min.a(applet.o)
 *fill*         0x0000000000006ba4        0xc 
 .text._appletWaitLibraryAppletLaunchableEvent
                0x0000000000006bb0       0x50 /home/jam/dev/ultimate/saltynx/arc_mod_installer/../libnx_min/nx//lib/libnx_min.a(applet.o)
 .text._appletCreateApplicationAndRequestToStartForQuest.isra.20
                0x0000000000006c00      0x17c /home/jam/dev/ultimate/saltynx/arc_mod_installer/../libnx_min/nx//lib/libnx_min.a(applet.o)
 *fill*         0x0000000000006d7c        0x4 
 .text._appletCreateApplicationAndPushAndRequestToStart
                0x0000000000006d80      0x1e0 /home/jam/dev/ultimate/saltynx/arc_mod_installer/../libnx_min/nx//lib/libnx_min.a(applet.o)
 .text._appletCmdNoInOut32.constprop.38
                0x0000000000006f60      0x194 /home/jam/dev/ultimate/saltynx/arc_mod_installer/../libnx_min/nx//lib/libnx_min.a(applet.o)
 *fill*         0x00000000000070f4        0xc 
 .text._appletCmdInSession
                0x0000000000007100      0x1d8 /home/jam/dev/ultimate/saltynx/arc_mod_installer/../libnx_min/nx//lib/libnx_min.a(applet.o)
 *fill*         0x00000000000072d8        0x8 
 .text._appletStorageGetHandle
                0x00000000000072e0      0x19c /home/jam/dev/ultimate/saltynx/arc_mod_installer/../libnx_min/nx//lib/libnx_min.a(applet.o)
 *fill*         0x000000000000747c        0x4 
 .text._appletCreateApplicationAndPushAndRequestToStartForQuest.isra.21
                0x0000000000007480      0x1e8 /home/jam/dev/ultimate/saltynx/arc_mod_installer/../libnx_min/nx//lib/libnx_min.a(applet.o)
 *fill*         0x0000000000007668        0x8 
 .text._appletCreateTransferMemoryStorage.isra.25
                0x0000000000007670      0x1e4 /home/jam/dev/ultimate/saltynx/arc_mod_installer/../libnx_min/nx//lib/libnx_min.a(applet.o)
 *fill*         0x0000000000007854        0xc 
 .text._appletGetSessionIn64.constprop.39
                0x0000000000007860      0x1c4 /home/jam/dev/ultimate/saltynx/arc_mod_installer/../libnx_min/nx//lib/libnx_min.a(applet.o)
 *fill*         0x0000000000007a24        0xc 
 .text._appletStorageAccessorRW
                0x0000000000007a30      0x314 /home/jam/dev/ultimate/saltynx/arc_mod_installer/../libnx_min/nx//lib/libnx_min.a(applet.o)
 *fill*         0x0000000000007d44        0xc 
 .text._appletStorageRW
                0x0000000000007d50      0x108 /home/jam/dev/ultimate/saltynx/arc_mod_installer/../libnx_min/nx//lib/libnx_min.a(applet.o)
 *fill*         0x0000000000007e58        0x8 
 .text._appletCreateLibraryApplet
                0x0000000000007e60      0x1c4 /home/jam/dev/ultimate/saltynx/arc_mod_installer/../libnx_min/nx//lib/libnx_min.a(applet.o)
 *fill*         0x0000000000008024        0xc 
 .text._appletGetSessionProxy.constprop.40
                0x0000000000008030      0x1f0 /home/jam/dev/ultimate/saltynx/arc_mod_installer/../libnx_min/nx//lib/libnx_min.a(applet.o)
 .text.appletGetAppletType
                0x0000000000008220       0x10 /home/jam/dev/ultimate/saltynx/arc_mod_installer/../libnx_min/nx//lib/libnx_min.a(applet.o)
                0x0000000000008220                appletGetAppletType
 .text.appletHook
                0x0000000000008230       0x28 /home/jam/dev/ultimate/saltynx/arc_mod_installer/../libnx_min/nx//lib/libnx_min.a(applet.o)
                0x0000000000008230                appletHook
 *fill*         0x0000000000008258        0x8 
 .text.appletUnhook
                0x0000000000008260       0x34 /home/jam/dev/ultimate/saltynx/arc_mod_installer/../libnx_min/nx//lib/libnx_min.a(applet.o)
                0x0000000000008260                appletUnhook
 *fill*         0x0000000000008294        0xc 
 .text.appletSetThemeColorType
                0x00000000000082a0        0xc /home/jam/dev/ultimate/saltynx/arc_mod_installer/../libnx_min/nx//lib/libnx_min.a(applet.o)
                0x00000000000082a0                appletSetThemeColorType
 *fill*         0x00000000000082ac        0x4 
 .text.appletGetThemeColorType
                0x00000000000082b0        0xc /home/jam/dev/ultimate/saltynx/arc_mod_installer/../libnx_min/nx//lib/libnx_min.a(applet.o)
                0x00000000000082b0                appletGetThemeColorType
 *fill*         0x00000000000082bc        0x4 
 .text.appletSetFocusHandlingMode
                0x00000000000082c0       0xf0 /home/jam/dev/ultimate/saltynx/arc_mod_installer/../libnx_min/nx//lib/libnx_min.a(applet.o)
                0x00000000000082c0                appletSetFocusHandlingMode
 .text.appletGetAppletResourceUserId
                0x00000000000083b0       0x28 /home/jam/dev/ultimate/saltynx/arc_mod_installer/../libnx_min/nx//lib/libnx_min.a(applet.o)
                0x00000000000083b0                appletGetAppletResourceUserId
 *fill*         0x00000000000083d8        0x8 
 .text._appletGetIndirectLayerConsumerHandle
                0x00000000000083e0      0x12c /home/jam/dev/ultimate/saltynx/arc_mod_installer/../libnx_min/nx//lib/libnx_min.a(applet.o)
 *fill*         0x000000000000850c        0x4 
 .text._appletHolderCreate
                0x0000000000008510       0xc0 /home/jam/dev/ultimate/saltynx/arc_mod_installer/../libnx_min/nx//lib/libnx_min.a(applet.o)
 .text.appletPopLaunchParameter
                0x00000000000085d0      0x194 /home/jam/dev/ultimate/saltynx/arc_mod_installer/../libnx_min/nx//lib/libnx_min.a(applet.o)
                0x00000000000085d0                appletPopLaunchParameter
 *fill*         0x0000000000008764        0xc 
 .text.appletGetDesiredLanguage
                0x0000000000008770       0x3c /home/jam/dev/ultimate/saltynx/arc_mod_installer/../libnx_min/nx//lib/libnx_min.a(applet.o)
                0x0000000000008770                appletGetDesiredLanguage
 *fill*         0x00000000000087ac        0x4 
 .text.appletSetTerminateResult
                0x00000000000087b0      0x14c /home/jam/dev/ultimate/saltynx/arc_mod_installer/../libnx_min/nx//lib/libnx_min.a(applet.o)
                0x00000000000087b0                appletSetTerminateResult
 *fill*         0x00000000000088fc        0x4 
 .text.appletSetMediaPlaybackState
                0x0000000000008900       0x4c /home/jam/dev/ultimate/saltynx/arc_mod_installer/../libnx_min/nx//lib/libnx_min.a(applet.o)
                0x0000000000008900                appletSetMediaPlaybackState
 *fill*         0x000000000000894c        0x4 
 .text.appletBeginBlockingHomeButton
                0x0000000000008950      0x14c /home/jam/dev/ultimate/saltynx/arc_mod_installer/../libnx_min/nx//lib/libnx_min.a(applet.o)
                0x0000000000008950                appletBeginBlockingHomeButton
 *fill*         0x0000000000008a9c        0x4 
 .text.appletEndBlockingHomeButton
                0x0000000000008aa0       0x38 /home/jam/dev/ultimate/saltynx/arc_mod_installer/../libnx_min/nx//lib/libnx_min.a(applet.o)
                0x0000000000008aa0                appletEndBlockingHomeButton
 *fill*         0x0000000000008ad8        0x8 
 .text.appletNotifyRunning
                0x0000000000008ae0      0x174 /home/jam/dev/ultimate/saltynx/arc_mod_installer/../libnx_min/nx//lib/libnx_min.a(applet.o)
                0x0000000000008ae0                appletNotifyRunning
 *fill*         0x0000000000008c54        0xc 
 .text.appletIsGamePlayRecordingSupported
                0x0000000000008c60      0x168 /home/jam/dev/ultimate/saltynx/arc_mod_installer/../libnx_min/nx//lib/libnx_min.a(applet.o)
                0x0000000000008c60                appletIsGamePlayRecordingSupported
 *fill*         0x0000000000008dc8        0x8 
 .text.appletSetGamePlayRecordingState
                0x0000000000008dd0      0x158 /home/jam/dev/ultimate/saltynx/arc_mod_installer/../libnx_min/nx//lib/libnx_min.a(applet.o)
                0x0000000000008dd0                appletSetGamePlayRecordingState
 *fill*         0x0000000000008f28        0x8 
 .text.appletInitializeGamePlayRecording
                0x0000000000008f30      0x138 /home/jam/dev/ultimate/saltynx/arc_mod_installer/../libnx_min/nx//lib/libnx_min.a(applet.o)
                0x0000000000008f30                appletInitializeGamePlayRecording
 *fill*         0x0000000000009068        0x8 
 .text.appletQueryApplicationPlayStatistics
                0x0000000000009070      0x1c0 /home/jam/dev/ultimate/saltynx/arc_mod_installer/../libnx_min/nx//lib/libnx_min.a(applet.o)
                0x0000000000009070                appletQueryApplicationPlayStatistics
 .text.appletBeginToWatchShortHomeButtonMessage
                0x0000000000009230       0x2c /home/jam/dev/ultimate/saltynx/arc_mod_installer/../libnx_min/nx//lib/libnx_min.a(applet.o)
                0x0000000000009230                appletBeginToWatchShortHomeButtonMessage
 *fill*         0x000000000000925c        0x4 
 .text.appletEndToWatchShortHomeButtonMessage
                0x0000000000009260       0x2c /home/jam/dev/ultimate/saltynx/arc_mod_installer/../libnx_min/nx//lib/libnx_min.a(applet.o)
                0x0000000000009260                appletEndToWatchShortHomeButtonMessage
 *fill*         0x000000000000928c        0x4 
 .text.appletHomeButtonReaderLockAccessorGetEvent
                0x0000000000009290       0xc8 /home/jam/dev/ultimate/saltynx/arc_mod_installer/../libnx_min/nx//lib/libnx_min.a(applet.o)
                0x0000000000009290                appletHomeButtonReaderLockAccessorGetEvent
 *fill*         0x0000000000009358        0x8 
 .text.appletIsVrModeEnabled
                0x0000000000009360       0x4c /home/jam/dev/ultimate/saltynx/arc_mod_installer/../libnx_min/nx//lib/libnx_min.a(applet.o)
                0x0000000000009360                appletIsVrModeEnabled
 *fill*         0x00000000000093ac        0x4 
 .text.appletSetVrModeEnabled
                0x00000000000093b0       0x78 /home/jam/dev/ultimate/saltynx/arc_mod_installer/../libnx_min/nx//lib/libnx_min.a(applet.o)
                0x00000000000093b0                appletSetVrModeEnabled
 *fill*         0x0000000000009428        0x8 
 .text.appletSetCpuBoostMode
                0x0000000000009430       0x50 /home/jam/dev/ultimate/saltynx/arc_mod_installer/../libnx_min/nx//lib/libnx_min.a(applet.o)
                0x0000000000009430                appletSetCpuBoostMode
 .text.appletExit
                0x0000000000009480      0x5dc /home/jam/dev/ultimate/saltynx/arc_mod_installer/../libnx_min/nx//lib/libnx_min.a(applet.o)
                0x0000000000009480                appletExit
 *fill*         0x0000000000009a5c        0x4 
 .text.appletInitialize
                0x0000000000009a60      0x4f0 /home/jam/dev/ultimate/saltynx/arc_mod_installer/../libnx_min/nx//lib/libnx_min.a(applet.o)
                0x0000000000009a60                appletInitialize
 .text._appletExitProcess
                0x0000000000009f50       0x10 /home/jam/dev/ultimate/saltynx/arc_mod_installer/../libnx_min/nx//lib/libnx_min.a(applet.o)
 .text.appletGetCurrentPerformanceConfiguration
                0x0000000000009f60       0x40 /home/jam/dev/ultimate/saltynx/arc_mod_installer/../libnx_min/nx//lib/libnx_min.a(applet.o)
                0x0000000000009f60                appletGetCurrentPerformanceConfiguration
 .text.appletLockExit
                0x0000000000009fa0       0x10 /home/jam/dev/ultimate/saltynx/arc_mod_installer/../libnx_min/nx//lib/libnx_min.a(applet.o)
                0x0000000000009fa0                appletLockExit
 .text.appletUnlockExit
                0x0000000000009fb0       0x10 /home/jam/dev/ultimate/saltynx/arc_mod_installer/../libnx_min/nx//lib/libnx_min.a(applet.o)
                0x0000000000009fb0                appletUnlockExit
 .text.appletSetScreenShotPermission
                0x0000000000009fc0      0x16c /home/jam/dev/ultimate/saltynx/arc_mod_installer/../libnx_min/nx//lib/libnx_min.a(applet.o)
                0x0000000000009fc0                appletSetScreenShotPermission
 *fill*         0x000000000000a12c        0x4 
 .text.appletSetScreenShotImageOrientation
                0x000000000000a130      0x1c4 /home/jam/dev/ultimate/saltynx/arc_mod_installer/../libnx_min/nx//lib/libnx_min.a(applet.o)
                0x000000000000a130                appletSetScreenShotImageOrientation
 *fill*         0x000000000000a2f4        0xc 
 .text.appletCreateManagedDisplayLayer
                0x000000000000a300       0x14 /home/jam/dev/ultimate/saltynx/arc_mod_installer/../libnx_min/nx//lib/libnx_min.a(applet.o)
                0x000000000000a300                appletCreateManagedDisplayLayer
 *fill*         0x000000000000a314        0xc 
 .text.appletGetCurrentIlluminance
                0x000000000000a320      0x168 /home/jam/dev/ultimate/saltynx/arc_mod_installer/../libnx_min/nx//lib/libnx_min.a(applet.o)
                0x000000000000a320                appletGetCurrentIlluminance
 *fill*         0x000000000000a488        0x8 
 .text.appletIsIlluminanceAvailable
                0x000000000000a490       0x4c /home/jam/dev/ultimate/saltynx/arc_mod_installer/../libnx_min/nx//lib/libnx_min.a(applet.o)
                0x000000000000a490                appletIsIlluminanceAvailable
 *fill*         0x000000000000a4dc        0x4 
 .text.appletGetCurrentIlluminanceEx
                0x000000000000a4e0      0x19c /home/jam/dev/ultimate/saltynx/arc_mod_installer/../libnx_min/nx//lib/libnx_min.a(applet.o)
                0x000000000000a4e0                appletGetCurrentIlluminanceEx
 *fill*         0x000000000000a67c        0x4 
 .text.appletCreateLibraryApplet
                0x000000000000a680        0x8 /home/jam/dev/ultimate/saltynx/arc_mod_installer/../libnx_min/nx//lib/libnx_min.a(applet.o)
                0x000000000000a680                appletCreateLibraryApplet
 *fill*         0x000000000000a688        0x8 
 .text.appletCreateLibraryAppletSelf
                0x000000000000a690        0x8 /home/jam/dev/ultimate/saltynx/arc_mod_installer/../libnx_min/nx//lib/libnx_min.a(applet.o)
                0x000000000000a690                appletCreateLibraryAppletSelf
 *fill*         0x000000000000a698        0x8 
 .text.appletHolderClose
                0x000000000000a6a0       0x94 /home/jam/dev/ultimate/saltynx/arc_mod_installer/../libnx_min/nx//lib/libnx_min.a(applet.o)
                0x000000000000a6a0                appletHolderClose
 *fill*         0x000000000000a734        0xc 
 .text.appletHolderActive
                0x000000000000a740       0x10 /home/jam/dev/ultimate/saltynx/arc_mod_installer/../libnx_min/nx//lib/libnx_min.a(applet.o)
                0x000000000000a740                appletHolderActive
 .text.appletHolderGetIndirectLayerConsumerHandle
                0x000000000000a750       0x74 /home/jam/dev/ultimate/saltynx/arc_mod_installer/../libnx_min/nx//lib/libnx_min.a(applet.o)
                0x000000000000a750                appletHolderGetIndirectLayerConsumerHandle
 *fill*         0x000000000000a7c4        0xc 
 .text.appletHolderStart
                0x000000000000a7d0       0x50 /home/jam/dev/ultimate/saltynx/arc_mod_installer/../libnx_min/nx//lib/libnx_min.a(applet.o)
                0x000000000000a7d0                appletHolderStart
 .text.appletHolderJoin
                0x000000000000a820       0x80 /home/jam/dev/ultimate/saltynx/arc_mod_installer/../libnx_min/nx//lib/libnx_min.a(applet.o)
                0x000000000000a820                appletHolderJoin
 .text.appletHolderCheckFinished
                0x000000000000a8a0       0x24 /home/jam/dev/ultimate/saltynx/arc_mod_installer/../libnx_min/nx//lib/libnx_min.a(applet.o)
                0x000000000000a8a0                appletHolderCheckFinished
 *fill*         0x000000000000a8c4        0xc 
 .text.appletHolderRequestExit
                0x000000000000a8d0       0x50 /home/jam/dev/ultimate/saltynx/arc_mod_installer/../libnx_min/nx//lib/libnx_min.a(applet.o)
                0x000000000000a8d0                appletHolderRequestExit
 .text.appletHolderGetExitReason
                0x000000000000a920        0x8 /home/jam/dev/ultimate/saltynx/arc_mod_installer/../libnx_min/nx//lib/libnx_min.a(applet.o)
                0x000000000000a920                appletHolderGetExitReason
 *fill*         0x000000000000a928        0x8 
 .text.appletHolderWaitInteractiveOut
                0x000000000000a930       0x88 /home/jam/dev/ultimate/saltynx/arc_mod_installer/../libnx_min/nx//lib/libnx_min.a(applet.o)
                0x000000000000a930                appletHolderWaitInteractiveOut
 *fill*         0x000000000000a9b8        0x8 
 .text.appletHolderPopOutData
                0x000000000000a9c0       0x18 /home/jam/dev/ultimate/saltynx/arc_mod_installer/../libnx_min/nx//lib/libnx_min.a(applet.o)
                0x000000000000a9c0                appletHolderPopOutData
 *fill*         0x000000000000a9d8        0x8 
 .text.appletHolderPopInteractiveOutData
                0x000000000000a9e0       0x18 /home/jam/dev/ultimate/saltynx/arc_mod_installer/../libnx_min/nx//lib/libnx_min.a(applet.o)
                0x000000000000a9e0                appletHolderPopInteractiveOutData
 *fill*         0x000000000000a9f8        0x8 
 .text.appletCreateStorage
                0x000000000000aa00       0x14 /home/jam/dev/ultimate/saltynx/arc_mod_installer/../libnx_min/nx//lib/libnx_min.a(applet.o)
                0x000000000000aa00                appletCreateStorage
 *fill*         0x000000000000aa14        0xc 
 .text.appletCreateTransferMemoryStorage
                0x000000000000aa20       0xa8 /home/jam/dev/ultimate/saltynx/arc_mod_installer/../libnx_min/nx//lib/libnx_min.a(applet.o)
                0x000000000000aa20                appletCreateTransferMemoryStorage
 *fill*         0x000000000000aac8        0x8 
 .text.appletCreateHandleStorage
                0x000000000000aad0       0x64 /home/jam/dev/ultimate/saltynx/arc_mod_installer/../libnx_min/nx//lib/libnx_min.a(applet.o)
                0x000000000000aad0                appletCreateHandleStorage
 *fill*         0x000000000000ab34        0xc 
 .text.appletCreateHandleStorageTmem
                0x000000000000ab40       0xa0 /home/jam/dev/ultimate/saltynx/arc_mod_installer/../libnx_min/nx//lib/libnx_min.a(applet.o)
                0x000000000000ab40                appletCreateHandleStorageTmem
 .text.appletStorageClose
                0x000000000000abe0       0x6c /home/jam/dev/ultimate/saltynx/arc_mod_installer/../libnx_min/nx//lib/libnx_min.a(applet.o)
                0x000000000000abe0                appletStorageClose
 *fill*         0x000000000000ac4c        0x4 
 .text.appletRequestLaunchApplication
                0x000000000000ac50      0x188 /home/jam/dev/ultimate/saltynx/arc_mod_installer/../libnx_min/nx//lib/libnx_min.a(applet.o)
                0x000000000000ac50                appletRequestLaunchApplication
 *fill*         0x000000000000add8        0x8 
 .text.appletRequestLaunchApplicationForQuest
                0x000000000000ade0      0x168 /home/jam/dev/ultimate/saltynx/arc_mod_installer/../libnx_min/nx//lib/libnx_min.a(applet.o)
                0x000000000000ade0                appletRequestLaunchApplicationForQuest
 *fill*         0x000000000000af48        0x8 
 .text.appletHolderPushInteractiveInData
                0x000000000000af50       0x40 /home/jam/dev/ultimate/saltynx/arc_mod_installer/../libnx_min/nx//lib/libnx_min.a(applet.o)
                0x000000000000af50                appletHolderPushInteractiveInData
 .text.appletPushToGeneralChannel
                0x000000000000af90       0x4c /home/jam/dev/ultimate/saltynx/arc_mod_installer/../libnx_min/nx//lib/libnx_min.a(applet.o)
                0x000000000000af90                appletPushToGeneralChannel
 *fill*         0x000000000000afdc        0x4 
 .text.appletHolderPushInData
                0x000000000000afe0       0x40 /home/jam/dev/ultimate/saltynx/arc_mod_installer/../libnx_min/nx//lib/libnx_min.a(applet.o)
                0x000000000000afe0                appletHolderPushInData
 .text.appletHolderPushExtraStorage
                0x000000000000b020       0x40 /home/jam/dev/ultimate/saltynx/arc_mod_installer/../libnx_min/nx//lib/libnx_min.a(applet.o)
                0x000000000000b020                appletHolderPushExtraStorage
 .text.appletStorageCloseTmem
                0x000000000000b060        0x8 /home/jam/dev/ultimate/saltynx/arc_mod_installer/../libnx_min/nx//lib/libnx_min.a(applet.o)
                0x000000000000b060                appletStorageCloseTmem
 *fill*         0x000000000000b068        0x8 
 .text.appletStorageGetSize
                0x000000000000b070       0xc4 /home/jam/dev/ultimate/saltynx/arc_mod_installer/../libnx_min/nx//lib/libnx_min.a(applet.o)
                0x000000000000b070                appletStorageGetSize
 *fill*         0x000000000000b134        0xc 
 .text.appletStorageWrite
                0x000000000000b140        0x8 /home/jam/dev/ultimate/saltynx/arc_mod_installer/../libnx_min/nx//lib/libnx_min.a(applet.o)
                0x000000000000b140                appletStorageWrite
 *fill*         0x000000000000b148        0x8 
 .text.appletStorageRead
                0x000000000000b150        0x8 /home/jam/dev/ultimate/saltynx/arc_mod_installer/../libnx_min/nx//lib/libnx_min.a(applet.o)
                0x000000000000b150                appletStorageRead
 *fill*         0x000000000000b158        0x8 
 .text.appletStorageGetHandle
                0x000000000000b160       0xfc /home/jam/dev/ultimate/saltynx/arc_mod_installer/../libnx_min/nx//lib/libnx_min.a(applet.o)
                0x000000000000b160                appletStorageGetHandle
 *fill*         0x000000000000b25c        0x4 
 .text.appletStorageMap
                0x000000000000b260       0xcc /home/jam/dev/ultimate/saltynx/arc_mod_installer/../libnx_min/nx//lib/libnx_min.a(applet.o)
                0x000000000000b260                appletStorageMap
 *fill*         0x000000000000b32c        0x4 
 .text.appletGetOperationMode
                0x000000000000b330        0xc /home/jam/dev/ultimate/saltynx/arc_mod_installer/../libnx_min/nx//lib/libnx_min.a(applet.o)
                0x000000000000b330                appletGetOperationMode
 *fill*         0x000000000000b33c        0x4 
 .text.appletGetPerformanceMode
                0x000000000000b340        0xc /home/jam/dev/ultimate/saltynx/arc_mod_installer/../libnx_min/nx//lib/libnx_min.a(applet.o)
                0x000000000000b340                appletGetPerformanceMode
 *fill*         0x000000000000b34c        0x4 
 .text.appletGetFocusState
                0x000000000000b350        0xc /home/jam/dev/ultimate/saltynx/arc_mod_installer/../libnx_min/nx//lib/libnx_min.a(applet.o)
                0x000000000000b350                appletGetFocusState
 *fill*         0x000000000000b35c        0x4 
 .text.appletGetMessage
                0x000000000000b360       0x5c /home/jam/dev/ultimate/saltynx/arc_mod_installer/../libnx_min/nx//lib/libnx_min.a(applet.o)
                0x000000000000b360                appletGetMessage
 *fill*         0x000000000000b3bc        0x4 
 .text.appletProcessMessage
                0x000000000000b3c0      0x118 /home/jam/dev/ultimate/saltynx/arc_mod_installer/../libnx_min/nx//lib/libnx_min.a(applet.o)
                0x000000000000b3c0                appletProcessMessage
 *fill*         0x000000000000b4d8        0x8 
 .text.appletMainLoop
                0x000000000000b4e0       0x34 /home/jam/dev/ultimate/saltynx/arc_mod_installer/../libnx_min/nx//lib/libnx_min.a(applet.o)
                0x000000000000b4e0                appletMainLoop
 *fill*         0x000000000000b514        0xc 
 .text.ipcCloseObjectById
                0x000000000000b520       0x34 /home/jam/dev/ultimate/saltynx/arc_mod_installer/../libnx_min/nx//lib/libnx_min.a(time.o)
 *fill*         0x000000000000b554        0xc 
 .text._timeGetSession
                0x000000000000b560      0x12c /home/jam/dev/ultimate/saltynx/arc_mod_installer/../libnx_min/nx//lib/libnx_min.a(time.o)
 *fill*         0x000000000000b68c        0x4 
 .text.timeExit
                0x000000000000b690      0x1ec /home/jam/dev/ultimate/saltynx/arc_mod_installer/../libnx_min/nx//lib/libnx_min.a(time.o)
                0x000000000000b690                timeExit
 *fill*         0x000000000000b87c        0x4 
 .text.timeInitialize
                0x000000000000b880       0xd8 /home/jam/dev/ultimate/saltynx/arc_mod_installer/../libnx_min/nx//lib/libnx_min.a(time.o)
                0x000000000000b880                timeInitialize
 *fill*         0x000000000000b958        0x8 
 .text.timeGetSessionService
                0x000000000000b960        0xc /home/jam/dev/ultimate/saltynx/arc_mod_installer/../libnx_min/nx//lib/libnx_min.a(time.o)
                0x000000000000b960                timeGetSessionService
 *fill*         0x000000000000b96c        0x4 
 .text.timeGetCurrentTime
                0x000000000000b970      0x124 /home/jam/dev/ultimate/saltynx/arc_mod_installer/../libnx_min/nx//lib/libnx_min.a(time.o)
                0x000000000000b970                timeGetCurrentTime
 *fill*         0x000000000000ba94        0xc 
 .text.timeSetCurrentTime
                0x000000000000baa0      0x104 /home/jam/dev/ultimate/saltynx/arc_mod_installer/../libnx_min/nx//lib/libnx_min.a(time.o)
                0x000000000000baa0                timeSetCurrentTime
 *fill*         0x000000000000bba4        0xc 
 .text.timeToCalendarTimeWithMyRule
                0x000000000000bbb0      0x118 /home/jam/dev/ultimate/saltynx/arc_mod_installer/../libnx_min/nx//lib/libnx_min.a(time.o)
                0x000000000000bbb0                timeToCalendarTimeWithMyRule
 *fill*         0x000000000000bcc8        0x8 
 .text._hidGetDeviceHandles.part.7
                0x000000000000bcd0       0xec /home/jam/dev/ultimate/saltynx/arc_mod_installer/../libnx_min/nx//lib/libnx_min.a(hid.o)
 *fill*         0x000000000000bdbc        0x4 
 .text.ipcCloseObjectById
                0x000000000000bdc0       0x34 /home/jam/dev/ultimate/saltynx/arc_mod_installer/../libnx_min/nx//lib/libnx_min.a(hid.o)
 *fill*         0x000000000000bdf4        0xc 
 .text._hidActivateVibrationDevice
                0x000000000000be00       0xc8 /home/jam/dev/ultimate/saltynx/arc_mod_installer/../libnx_min/nx//lib/libnx_min.a(hid.o)
 *fill*         0x000000000000bec8        0x8 
 .text._hidGetSharedMemoryHandle.constprop.17
                0x000000000000bed0      0x124 /home/jam/dev/ultimate/saltynx/arc_mod_installer/../libnx_min/nx//lib/libnx_min.a(hid.o)
 *fill*         0x000000000000bff4        0xc 
 .text._hidCreateActiveVibrationDeviceList
                0x000000000000c000      0x134 /home/jam/dev/ultimate/saltynx/arc_mod_installer/../libnx_min/nx//lib/libnx_min.a(hid.o)
 *fill*         0x000000000000c134        0xc 
 .text._hidCmdWithNoInput
                0x000000000000c140      0x100 /home/jam/dev/ultimate/saltynx/arc_mod_installer/../libnx_min/nx//lib/libnx_min.a(hid.o)
 .text._hidCreateAppletResource.constprop.16
                0x000000000000c240      0x134 /home/jam/dev/ultimate/saltynx/arc_mod_installer/../libnx_min/nx//lib/libnx_min.a(hid.o)
 *fill*         0x000000000000c374        0xc 
 .text._hidCmdWithInputU32
                0x000000000000c380      0x10c /home/jam/dev/ultimate/saltynx/arc_mod_installer/../libnx_min/nx//lib/libnx_min.a(hid.o)
 *fill*         0x000000000000c48c        0x4 
 .text._hidCmdWithInputU64.constprop.18
                0x000000000000c490      0x108 /home/jam/dev/ultimate/saltynx/arc_mod_installer/../libnx_min/nx//lib/libnx_min.a(hid.o)
 *fill*         0x000000000000c598        0x8 
 .text._hidInitializeSevenSixAxisSensor.isra.11.constprop.19
                0x000000000000c5a0      0x1f8 /home/jam/dev/ultimate/saltynx/arc_mod_installer/../libnx_min/nx//lib/libnx_min.a(hid.o)
 *fill*         0x000000000000c798        0x8 
 .text.hidReset
                0x000000000000c7a0      0x1f8 /home/jam/dev/ultimate/saltynx/arc_mod_installer/../libnx_min/nx//lib/libnx_min.a(hid.o)
                0x000000000000c7a0                hidReset
 *fill*         0x000000000000c998        0x8 
 .text.hidGetSessionService
                0x000000000000c9a0        0xc /home/jam/dev/ultimate/saltynx/arc_mod_installer/../libnx_min/nx//lib/libnx_min.a(hid.o)
                0x000000000000c9a0                hidGetSessionService
 *fill*         0x000000000000c9ac        0x4 
 .text.hidGetSharedmemAddr
                0x000000000000c9b0        0xc /home/jam/dev/ultimate/saltynx/arc_mod_installer/../libnx_min/nx//lib/libnx_min.a(hid.o)
                0x000000000000c9b0                hidGetSharedmemAddr
 *fill*         0x000000000000c9bc        0x4 
 .text.hidSetControllerLayout
                0x000000000000c9c0       0x54 /home/jam/dev/ultimate/saltynx/arc_mod_installer/../libnx_min/nx//lib/libnx_min.a(hid.o)
                0x000000000000c9c0                hidSetControllerLayout
 *fill*         0x000000000000ca14        0xc 
 .text.hidGetControllerLayout
                0x000000000000ca20       0x50 /home/jam/dev/ultimate/saltynx/arc_mod_installer/../libnx_min/nx//lib/libnx_min.a(hid.o)
                0x000000000000ca20                hidGetControllerLayout
 .text.hidGetControllerType
                0x000000000000ca70       0x78 /home/jam/dev/ultimate/saltynx/arc_mod_installer/../libnx_min/nx//lib/libnx_min.a(hid.o)
                0x000000000000ca70                hidGetControllerType
 *fill*         0x000000000000cae8        0x8 
 .text.hidGetControllerColors
                0x000000000000caf0       0xd4 /home/jam/dev/ultimate/saltynx/arc_mod_installer/../libnx_min/nx//lib/libnx_min.a(hid.o)
                0x000000000000caf0                hidGetControllerColors
 *fill*         0x000000000000cbc4        0xc 
 .text.hidIsControllerConnected
                0x000000000000cbd0       0x7c /home/jam/dev/ultimate/saltynx/arc_mod_installer/../libnx_min/nx//lib/libnx_min.a(hid.o)
                0x000000000000cbd0                hidIsControllerConnected
 *fill*         0x000000000000cc4c        0x4 
 .text.hidGetControllerDeviceType
                0x000000000000cc50       0x70 /home/jam/dev/ultimate/saltynx/arc_mod_installer/../libnx_min/nx//lib/libnx_min.a(hid.o)
                0x000000000000cc50                hidGetControllerDeviceType
 .text.hidGetControllerFlags
                0x000000000000ccc0       0x90 /home/jam/dev/ultimate/saltynx/arc_mod_installer/../libnx_min/nx//lib/libnx_min.a(hid.o)
                0x000000000000ccc0                hidGetControllerFlags
 .text.hidGetControllerPowerInfo
                0x000000000000cd50      0x114 /home/jam/dev/ultimate/saltynx/arc_mod_installer/../libnx_min/nx//lib/libnx_min.a(hid.o)
                0x000000000000cd50                hidGetControllerPowerInfo
 *fill*         0x000000000000ce64        0xc 
 .text.hidKeysHeld
                0x000000000000ce70       0x6c /home/jam/dev/ultimate/saltynx/arc_mod_installer/../libnx_min/nx//lib/libnx_min.a(hid.o)
                0x000000000000ce70                hidKeysHeld
 *fill*         0x000000000000cedc        0x4 
 .text.hidKeysDown
                0x000000000000cee0       0x6c /home/jam/dev/ultimate/saltynx/arc_mod_installer/../libnx_min/nx//lib/libnx_min.a(hid.o)
                0x000000000000cee0                hidKeysDown
 *fill*         0x000000000000cf4c        0x4 
 .text.hidKeysUp
                0x000000000000cf50       0x6c /home/jam/dev/ultimate/saltynx/arc_mod_installer/../libnx_min/nx//lib/libnx_min.a(hid.o)
                0x000000000000cf50                hidKeysUp
 *fill*         0x000000000000cfbc        0x4 
 .text.hidMouseButtonsHeld
                0x000000000000cfc0       0x3c /home/jam/dev/ultimate/saltynx/arc_mod_installer/../libnx_min/nx//lib/libnx_min.a(hid.o)
                0x000000000000cfc0                hidMouseButtonsHeld
 *fill*         0x000000000000cffc        0x4 
 .text.hidMouseButtonsDown
                0x000000000000d000       0x3c /home/jam/dev/ultimate/saltynx/arc_mod_installer/../libnx_min/nx//lib/libnx_min.a(hid.o)
                0x000000000000d000                hidMouseButtonsDown
 *fill*         0x000000000000d03c        0x4 
 .text.hidMouseButtonsUp
                0x000000000000d040       0x3c /home/jam/dev/ultimate/saltynx/arc_mod_installer/../libnx_min/nx//lib/libnx_min.a(hid.o)
                0x000000000000d040                hidMouseButtonsUp
 *fill*         0x000000000000d07c        0x4 
 .text.hidMouseRead
                0x000000000000d080       0x48 /home/jam/dev/ultimate/saltynx/arc_mod_installer/../libnx_min/nx//lib/libnx_min.a(hid.o)
                0x000000000000d080                hidMouseRead
 *fill*         0x000000000000d0c8        0x8 
 .text.hidMouseMultiRead
                0x000000000000d0d0      0x150 /home/jam/dev/ultimate/saltynx/arc_mod_installer/../libnx_min/nx//lib/libnx_min.a(hid.o)
                0x000000000000d0d0                hidMouseMultiRead
 .text.hidKeyboardModifierHeld
                0x000000000000d220       0x48 /home/jam/dev/ultimate/saltynx/arc_mod_installer/../libnx_min/nx//lib/libnx_min.a(hid.o)
                0x000000000000d220                hidKeyboardModifierHeld
 *fill*         0x000000000000d268        0x8 
 .text.hidKeyboardModifierDown
                0x000000000000d270       0x48 /home/jam/dev/ultimate/saltynx/arc_mod_installer/../libnx_min/nx//lib/libnx_min.a(hid.o)
                0x000000000000d270                hidKeyboardModifierDown
 *fill*         0x000000000000d2b8        0x8 
 .text.hidKeyboardModifierUp
                0x000000000000d2c0       0x48 /home/jam/dev/ultimate/saltynx/arc_mod_installer/../libnx_min/nx//lib/libnx_min.a(hid.o)
                0x000000000000d2c0                hidKeyboardModifierUp
 *fill*         0x000000000000d308        0x8 
 .text.hidKeyboardHeld
                0x000000000000d310       0x60 /home/jam/dev/ultimate/saltynx/arc_mod_installer/../libnx_min/nx//lib/libnx_min.a(hid.o)
                0x000000000000d310                hidKeyboardHeld
 .text.hidKeyboardDown
                0x000000000000d370       0x60 /home/jam/dev/ultimate/saltynx/arc_mod_installer/../libnx_min/nx//lib/libnx_min.a(hid.o)
                0x000000000000d370                hidKeyboardDown
 .text.hidKeyboardUp
                0x000000000000d3d0       0x60 /home/jam/dev/ultimate/saltynx/arc_mod_installer/../libnx_min/nx//lib/libnx_min.a(hid.o)
                0x000000000000d3d0                hidKeyboardUp
 .text.hidTouchCount
                0x000000000000d430        0xc /home/jam/dev/ultimate/saltynx/arc_mod_installer/../libnx_min/nx//lib/libnx_min.a(hid.o)
                0x000000000000d430                hidTouchCount
 *fill*         0x000000000000d43c        0x4 
 .text.hidScanInput
                0x000000000000d440      0x598 /home/jam/dev/ultimate/saltynx/arc_mod_installer/../libnx_min/nx//lib/libnx_min.a(hid.o)
                0x000000000000d440                hidScanInput
 *fill*         0x000000000000d9d8        0x8 
 .text.hidTouchRead
                0x000000000000d9e0       0x54 /home/jam/dev/ultimate/saltynx/arc_mod_installer/../libnx_min/nx//lib/libnx_min.a(hid.o)
                0x000000000000d9e0                hidTouchRead
 *fill*         0x000000000000da34        0xc 
 .text.hidJoystickRead
                0x000000000000da40       0xac /home/jam/dev/ultimate/saltynx/arc_mod_installer/../libnx_min/nx//lib/libnx_min.a(hid.o)
                0x000000000000da40                hidJoystickRead
 *fill*         0x000000000000daec        0x4 
 .text.hidSixAxisSensorValuesRead
                0x000000000000daf0      0x214 /home/jam/dev/ultimate/saltynx/arc_mod_installer/../libnx_min/nx//lib/libnx_min.a(hid.o)
                0x000000000000daf0                hidSixAxisSensorValuesRead
 *fill*         0x000000000000dd04        0xc 
 .text.hidGetHandheldMode
                0x000000000000dd10       0x14 /home/jam/dev/ultimate/saltynx/arc_mod_installer/../libnx_min/nx//lib/libnx_min.a(hid.o)
                0x000000000000dd10                hidGetHandheldMode
 *fill*         0x000000000000dd24        0xc 
 .text.hidSetSupportedNpadIdType
                0x000000000000dd30      0x198 /home/jam/dev/ultimate/saltynx/arc_mod_installer/../libnx_min/nx//lib/libnx_min.a(hid.o)
                0x000000000000dd30                hidSetSupportedNpadIdType
 *fill*         0x000000000000dec8        0x8 
 .text.hidSetSupportedNpadStyleSet
                0x000000000000ded0        0xc /home/jam/dev/ultimate/saltynx/arc_mod_installer/../libnx_min/nx//lib/libnx_min.a(hid.o)
                0x000000000000ded0                hidSetSupportedNpadStyleSet
 *fill*         0x000000000000dedc        0x4 
 .text.hidAcquireNpadStyleSetUpdateEventHandle
                0x000000000000dee0      0x194 /home/jam/dev/ultimate/saltynx/arc_mod_installer/../libnx_min/nx//lib/libnx_min.a(hid.o)
                0x000000000000dee0                hidAcquireNpadStyleSetUpdateEventHandle
 *fill*         0x000000000000e074        0xc 
 .text.hidSetNpadJoyHoldType
                0x000000000000e080        0x8 /home/jam/dev/ultimate/saltynx/arc_mod_installer/../libnx_min/nx//lib/libnx_min.a(hid.o)
                0x000000000000e080                hidSetNpadJoyHoldType
 *fill*         0x000000000000e088        0x8 
 .text.hidSetNpadJoyAssignmentModeSingleByDefault
                0x000000000000e090        0xc /home/jam/dev/ultimate/saltynx/arc_mod_installer/../libnx_min/nx//lib/libnx_min.a(hid.o)
                0x000000000000e090                hidSetNpadJoyAssignmentModeSingleByDefault
 *fill*         0x000000000000e09c        0x4 
 .text.hidSetNpadJoyAssignmentModeDual
                0x000000000000e0a0        0xc /home/jam/dev/ultimate/saltynx/arc_mod_installer/../libnx_min/nx//lib/libnx_min.a(hid.o)
                0x000000000000e0a0                hidSetNpadJoyAssignmentModeDual
 *fill*         0x000000000000e0ac        0x4 
 .text.hidMergeSingleJoyAsDualJoy
                0x000000000000e0b0      0x110 /home/jam/dev/ultimate/saltynx/arc_mod_installer/../libnx_min/nx//lib/libnx_min.a(hid.o)
                0x000000000000e0b0                hidMergeSingleJoyAsDualJoy
 .text.hidGetVibrationDeviceInfo
                0x000000000000e1c0       0xf8 /home/jam/dev/ultimate/saltynx/arc_mod_installer/../libnx_min/nx//lib/libnx_min.a(hid.o)
                0x000000000000e1c0                hidGetVibrationDeviceInfo
 *fill*         0x000000000000e2b8        0x8 
 .text.hidSendVibrationValue
                0x000000000000e2c0      0x120 /home/jam/dev/ultimate/saltynx/arc_mod_installer/../libnx_min/nx//lib/libnx_min.a(hid.o)
                0x000000000000e2c0                hidSendVibrationValue
 .text.hidGetActualVibrationValue
                0x000000000000e3e0      0x128 /home/jam/dev/ultimate/saltynx/arc_mod_installer/../libnx_min/nx//lib/libnx_min.a(hid.o)
                0x000000000000e3e0                hidGetActualVibrationValue
 *fill*         0x000000000000e508        0x8 
 .text.hidPermitVibration
                0x000000000000e510       0xd0 /home/jam/dev/ultimate/saltynx/arc_mod_installer/../libnx_min/nx//lib/libnx_min.a(hid.o)
                0x000000000000e510                hidPermitVibration
 .text.hidIsVibrationPermitted
                0x000000000000e5e0       0xf4 /home/jam/dev/ultimate/saltynx/arc_mod_installer/../libnx_min/nx//lib/libnx_min.a(hid.o)
                0x000000000000e5e0                hidIsVibrationPermitted
 *fill*         0x000000000000e6d4        0xc 
 .text.hidSendVibrationValues
                0x000000000000e6e0      0x144 /home/jam/dev/ultimate/saltynx/arc_mod_installer/../libnx_min/nx//lib/libnx_min.a(hid.o)
                0x000000000000e6e0                hidSendVibrationValues
 *fill*         0x000000000000e824        0xc 
 .text.hidInitializeVibrationDevices
                0x000000000000e830      0x114 /home/jam/dev/ultimate/saltynx/arc_mod_installer/../libnx_min/nx//lib/libnx_min.a(hid.o)
                0x000000000000e830                hidInitializeVibrationDevices
 *fill*         0x000000000000e944        0xc 
 .text.hidGetSixAxisSensorHandles
                0x000000000000e950       0x2c /home/jam/dev/ultimate/saltynx/arc_mod_installer/../libnx_min/nx//lib/libnx_min.a(hid.o)
                0x000000000000e950                hidGetSixAxisSensorHandles
 *fill*         0x000000000000e97c        0x4 
 .text.hidStartSixAxisSensor
                0x000000000000e980       0x84 /home/jam/dev/ultimate/saltynx/arc_mod_installer/../libnx_min/nx//lib/libnx_min.a(hid.o)
                0x000000000000e980                hidStartSixAxisSensor
 *fill*         0x000000000000ea04        0xc 
 .text.hidStopSixAxisSensor
                0x000000000000ea10       0x80 /home/jam/dev/ultimate/saltynx/arc_mod_installer/../libnx_min/nx//lib/libnx_min.a(hid.o)
                0x000000000000ea10                hidStopSixAxisSensor
 .text.hidStartSevenSixAxisSensor
                0x000000000000ea90       0x30 /home/jam/dev/ultimate/saltynx/arc_mod_installer/../libnx_min/nx//lib/libnx_min.a(hid.o)
                0x000000000000ea90                hidStartSevenSixAxisSensor
 .text.hidStopSevenSixAxisSensor
                0x000000000000eac0       0x30 /home/jam/dev/ultimate/saltynx/arc_mod_installer/../libnx_min/nx//lib/libnx_min.a(hid.o)
                0x000000000000eac0                hidStopSevenSixAxisSensor
 .text.hidFinalizeSevenSixAxisSensor
                0x000000000000eaf0       0x80 /home/jam/dev/ultimate/saltynx/arc_mod_installer/../libnx_min/nx//lib/libnx_min.a(hid.o)
                0x000000000000eaf0                hidFinalizeSevenSixAxisSensor
 .text.hidExit  0x000000000000eb70      0x134 /home/jam/dev/ultimate/saltynx/arc_mod_installer/../libnx_min/nx//lib/libnx_min.a(hid.o)
                0x000000000000eb70                hidExit
 *fill*         0x000000000000eca4        0xc 
 .text.hidInitialize
                0x000000000000ecb0      0x168 /home/jam/dev/ultimate/saltynx/arc_mod_installer/../libnx_min/nx//lib/libnx_min.a(hid.o)
                0x000000000000ecb0                hidInitialize
 *fill*         0x000000000000ee18        0x8 
 .text.hidInitializeSevenSixAxisSensor
                0x000000000000ee20      0x130 /home/jam/dev/ultimate/saltynx/arc_mod_installer/../libnx_min/nx//lib/libnx_min.a(hid.o)
                0x000000000000ee20                hidInitializeSevenSixAxisSensor
 .text.hidSetSevenSixAxisSensorFusionStrength
                0x000000000000ef50      0x1f8 /home/jam/dev/ultimate/saltynx/arc_mod_installer/../libnx_min/nx//lib/libnx_min.a(hid.o)
                0x000000000000ef50                hidSetSevenSixAxisSensorFusionStrength
 *fill*         0x000000000000f148        0x8 
 .text.hidGetSevenSixAxisSensorFusionStrength
                0x000000000000f150      0x1fc /home/jam/dev/ultimate/saltynx/arc_mod_installer/../libnx_min/nx//lib/libnx_min.a(hid.o)
                0x000000000000f150                hidGetSevenSixAxisSensorFusionStrength
 *fill*         0x000000000000f34c        0x4 
 .text.hidResetSevenSixAxisSensorTimestamp
                0x000000000000f350       0x30 /home/jam/dev/ultimate/saltynx/arc_mod_installer/../libnx_min/nx//lib/libnx_min.a(hid.o)
                0x000000000000f350                hidResetSevenSixAxisSensorTimestamp
 .text.ipcCloseObjectById
                0x000000000000f380       0x34 /home/jam/dev/ultimate/saltynx/arc_mod_installer/../libnx_min/nx//lib/libnx_min.a(sm.o)
 *fill*         0x000000000000f3b4        0xc 
 .text.smAddOverrideHandle
                0x000000000000f3c0       0x44 /home/jam/dev/ultimate/saltynx/arc_mod_installer/../libnx_min/nx//lib/libnx_min.a(sm.o)
                0x000000000000f3c0                smAddOverrideHandle
 *fill*         0x000000000000f404        0xc 
 .text.smGetServiceOverride
                0x000000000000f410       0x60 /home/jam/dev/ultimate/saltynx/arc_mod_installer/../libnx_min/nx//lib/libnx_min.a(sm.o)
                0x000000000000f410                smGetServiceOverride
 .text.smHasInitialized
                0x000000000000f470       0x14 /home/jam/dev/ultimate/saltynx/arc_mod_installer/../libnx_min/nx//lib/libnx_min.a(sm.o)
                0x000000000000f470                smHasInitialized
 *fill*         0x000000000000f484        0xc 
 .text.smExit   0x000000000000f490       0x9c /home/jam/dev/ultimate/saltynx/arc_mod_installer/../libnx_min/nx//lib/libnx_min.a(sm.o)
                0x000000000000f490                smExit
 *fill*         0x000000000000f52c        0x4 
 .text.smGetServiceSession
                0x000000000000f530        0xc /home/jam/dev/ultimate/saltynx/arc_mod_installer/../libnx_min/nx//lib/libnx_min.a(sm.o)
                0x000000000000f530                smGetServiceSession
 *fill*         0x000000000000f53c        0x4 
 .text.smEncodeName
                0x000000000000f540       0x38 /home/jam/dev/ultimate/saltynx/arc_mod_installer/../libnx_min/nx//lib/libnx_min.a(sm.o)
                0x000000000000f540                smEncodeName
 *fill*         0x000000000000f578        0x8 
 .text.smGetServiceOriginal
                0x000000000000f580      0x22c /home/jam/dev/ultimate/saltynx/arc_mod_installer/../libnx_min/nx//lib/libnx_min.a(sm.o)
                0x000000000000f580                smGetServiceOriginal
 *fill*         0x000000000000f7ac        0x4 
 .text.smInitialize
                0x000000000000f7b0      0x27c /home/jam/dev/ultimate/saltynx/arc_mod_installer/../libnx_min/nx//lib/libnx_min.a(sm.o)
                0x000000000000f7b0                smInitialize
 *fill*         0x000000000000fa2c        0x4 
 .text.smGetService
                0x000000000000fa30       0x74 /home/jam/dev/ultimate/saltynx/arc_mod_installer/../libnx_min/nx//lib/libnx_min.a(sm.o)
                0x000000000000fa30                smGetService
 *fill*         0x000000000000faa4        0xc 
 .text.smRegisterService
                0x000000000000fab0      0x25c /home/jam/dev/ultimate/saltynx/arc_mod_installer/../libnx_min/nx//lib/libnx_min.a(sm.o)
                0x000000000000fab0                smRegisterService
 *fill*         0x000000000000fd0c        0x4 
 .text.smUnregisterService
                0x000000000000fd10      0x1ac /home/jam/dev/ultimate/saltynx/arc_mod_installer/../libnx_min/nx//lib/libnx_min.a(sm.o)
                0x000000000000fd10                smUnregisterService
 *fill*         0x000000000000febc        0x4 
 .text.ipcCloseObjectById
                0x000000000000fec0       0x34 /home/jam/dev/ultimate/saltynx/arc_mod_installer/../libnx_min/nx//lib/libnx_min.a(apm.o)
 *fill*         0x000000000000fef4        0xc 
 .text._apmGetSession.constprop.4
                0x000000000000ff00      0x124 /home/jam/dev/ultimate/saltynx/arc_mod_installer/../libnx_min/nx//lib/libnx_min.a(apm.o)
 *fill*         0x0000000000010024        0xc 
 .text.apmExit  0x0000000000010030       0xf0 /home/jam/dev/ultimate/saltynx/arc_mod_installer/../libnx_min/nx//lib/libnx_min.a(apm.o)
                0x0000000000010030                apmExit
 .text.apmInitialize
                0x0000000000010120       0x70 /home/jam/dev/ultimate/saltynx/arc_mod_installer/../libnx_min/nx//lib/libnx_min.a(apm.o)
                0x0000000000010120                apmInitialize
 .text.apmSetPerformanceConfiguration
                0x0000000000010190       0xcc /home/jam/dev/ultimate/saltynx/arc_mod_installer/../libnx_min/nx//lib/libnx_min.a(apm.o)
                0x0000000000010190                apmSetPerformanceConfiguration
 *fill*         0x000000000001025c        0x4 
 .text.apmGetPerformanceConfiguration
                0x0000000000010260       0xf4 /home/jam/dev/ultimate/saltynx/arc_mod_installer/../libnx_min/nx//lib/libnx_min.a(apm.o)
                0x0000000000010260                apmGetPerformanceConfiguration
 *fill*         0x0000000000010354        0xc 
 .text._fatalImpl
                0x0000000000010360      0x140 /home/jam/dev/ultimate/saltynx/arc_mod_installer/../libnx_min/nx//lib/libnx_min.a(fatal.o)
 .text.fatalWithType
                0x00000000000104a0       0x14 /home/jam/dev/ultimate/saltynx/arc_mod_installer/../libnx_min/nx//lib/libnx_min.a(fatal.o)
                0x00000000000104a0                fatalWithType
 *fill*         0x00000000000104b4        0xc 
 .text.fatalSimple
                0x00000000000104c0       0x14 /home/jam/dev/ultimate/saltynx/arc_mod_installer/../libnx_min/nx//lib/libnx_min.a(fatal.o)
                0x00000000000104c0                fatalSimple
 *fill*         0x00000000000104d4        0xc 
 .text.fatalWithContext
                0x00000000000104e0       0x14 /home/jam/dev/ultimate/saltynx/arc_mod_installer/../libnx_min/nx//lib/libnx_min.a(fatal.o)
                0x00000000000104e0                fatalWithContext
 *fill*         0x00000000000104f4        0xc 
 .text.ipcCloseObjectById
                0x0000000000010500       0x34 /home/jam/dev/ultimate/saltynx/arc_mod_installer/../libnx_min/nx//lib/libnx_min.a(set.o)
 *fill*         0x0000000000010534        0xc 
 .text._setMakeLanguageCode
                0x0000000000010540       0xf4 /home/jam/dev/ultimate/saltynx/arc_mod_installer/../libnx_min/nx//lib/libnx_min.a(set.o)
 *fill*         0x0000000000010634        0xc 
 .text._setsysGetFirmwareVersionImpl
                0x0000000000010640      0x1d4 /home/jam/dev/ultimate/saltynx/arc_mod_installer/../libnx_min/nx//lib/libnx_min.a(set.o)
 *fill*         0x0000000000010814        0xc 
 .text.setInitialize
                0x0000000000010820       0x44 /home/jam/dev/ultimate/saltynx/arc_mod_installer/../libnx_min/nx//lib/libnx_min.a(set.o)
                0x0000000000010820                setInitialize
 *fill*         0x0000000000010864        0xc 
 .text.setExit  0x0000000000010870       0x9c /home/jam/dev/ultimate/saltynx/arc_mod_installer/../libnx_min/nx//lib/libnx_min.a(set.o)
                0x0000000000010870                setExit
 *fill*         0x000000000001090c        0x4 
 .text.setsysInitialize
                0x0000000000010910       0x3c /home/jam/dev/ultimate/saltynx/arc_mod_installer/../libnx_min/nx//lib/libnx_min.a(set.o)
                0x0000000000010910                setsysInitialize
 *fill*         0x000000000001094c        0x4 
 .text.setsysExit
                0x0000000000010950       0x9c /home/jam/dev/ultimate/saltynx/arc_mod_installer/../libnx_min/nx//lib/libnx_min.a(set.o)
                0x0000000000010950                setsysExit
 *fill*         0x00000000000109ec        0x4 
 .text.setGetLanguageCode
                0x00000000000109f0       0xec /home/jam/dev/ultimate/saltynx/arc_mod_installer/../libnx_min/nx//lib/libnx_min.a(set.o)
                0x00000000000109f0                setGetLanguageCode
 *fill*         0x0000000000010adc        0x4 
 .text.setGetSystemLanguage
                0x0000000000010ae0        0x4 /home/jam/dev/ultimate/saltynx/arc_mod_installer/../libnx_min/nx//lib/libnx_min.a(set.o)
                0x0000000000010ae0                setGetSystemLanguage
 *fill*         0x0000000000010ae4        0xc 
 .text.setGetAvailableLanguageCodeCount
                0x0000000000010af0      0x10c /home/jam/dev/ultimate/saltynx/arc_mod_installer/../libnx_min/nx//lib/libnx_min.a(set.o)
                0x0000000000010af0                setGetAvailableLanguageCodeCount
 *fill*         0x0000000000010bfc        0x4 
 .text.setGetAvailableLanguageCodes
                0x0000000000010c00      0x1b4 /home/jam/dev/ultimate/saltynx/arc_mod_installer/../libnx_min/nx//lib/libnx_min.a(set.o)
                0x0000000000010c00                setGetAvailableLanguageCodes
 *fill*         0x0000000000010db4        0xc 
 .text.setInitializeLanguageCodesCache
                0x0000000000010dc0       0x70 /home/jam/dev/ultimate/saltynx/arc_mod_installer/../libnx_min/nx//lib/libnx_min.a(set.o)
 .text.setMakeLanguage
                0x0000000000010e30       0x8c /home/jam/dev/ultimate/saltynx/arc_mod_installer/../libnx_min/nx//lib/libnx_min.a(set.o)
                0x0000000000010e30                setMakeLanguage
 *fill*         0x0000000000010ebc        0x4 
 .text.setMakeLanguageCode
                0x0000000000010ec0       0x80 /home/jam/dev/ultimate/saltynx/arc_mod_installer/../libnx_min/nx//lib/libnx_min.a(set.o)
                0x0000000000010ec0                setMakeLanguageCode
 .text.setGetRegionCode
                0x0000000000010f40       0xf0 /home/jam/dev/ultimate/saltynx/arc_mod_installer/../libnx_min/nx//lib/libnx_min.a(set.o)
                0x0000000000010f40                setGetRegionCode
 .text.setsysGetColorSetId
                0x0000000000011030       0xe4 /home/jam/dev/ultimate/saltynx/arc_mod_installer/../libnx_min/nx//lib/libnx_min.a(set.o)
                0x0000000000011030                setsysGetColorSetId
 *fill*         0x0000000000011114        0xc 
 .text.setsysSetColorSetId
                0x0000000000011120       0xd0 /home/jam/dev/ultimate/saltynx/arc_mod_installer/../libnx_min/nx//lib/libnx_min.a(set.o)
                0x0000000000011120                setsysSetColorSetId
 .text.setsysGetSettingsItemValue
                0x00000000000111f0      0x19c /home/jam/dev/ultimate/saltynx/arc_mod_installer/../libnx_min/nx//lib/libnx_min.a(set.o)
                0x00000000000111f0                setsysGetSettingsItemValue
 *fill*         0x000000000001138c        0x4 
 .text.setsysGetSettingsItemValueSize
                0x0000000000011390      0x198 /home/jam/dev/ultimate/saltynx/arc_mod_installer/../libnx_min/nx//lib/libnx_min.a(set.o)
                0x0000000000011390                setsysGetSettingsItemValueSize
 *fill*         0x0000000000011528        0x8 
 .text.setsysGetSerialNumber
                0x0000000000011530      0x108 /home/jam/dev/ultimate/saltynx/arc_mod_installer/../libnx_min/nx//lib/libnx_min.a(set.o)
                0x0000000000011530                setsysGetSerialNumber
 *fill*         0x0000000000011638        0x8 
 .text.setsysGetFlag
                0x0000000000011640       0xec /home/jam/dev/ultimate/saltynx/arc_mod_installer/../libnx_min/nx//lib/libnx_min.a(set.o)
                0x0000000000011640                setsysGetFlag
 *fill*         0x000000000001172c        0x4 
 .text.setsysSetFlag
                0x0000000000011730       0xd0 /home/jam/dev/ultimate/saltynx/arc_mod_installer/../libnx_min/nx//lib/libnx_min.a(set.o)
                0x0000000000011730                setsysSetFlag
 .text.setsysGetFirmwareVersion
                0x0000000000011800       0x44 /home/jam/dev/ultimate/saltynx/arc_mod_installer/../libnx_min/nx//lib/libnx_min.a(set.o)
                0x0000000000011800                setsysGetFirmwareVersion
 *fill*         0x0000000000011844        0xc 
 .text.setsysBindFatalDirtyFlagEvent
                0x0000000000011850      0x13c /home/jam/dev/ultimate/saltynx/arc_mod_installer/../libnx_min/nx//lib/libnx_min.a(set.o)
                0x0000000000011850                setsysBindFatalDirtyFlagEvent
 *fill*         0x000000000001198c        0x4 
 .text.setsysGetFatalDirtyFlags
                0x0000000000011990       0xf8 /home/jam/dev/ultimate/saltynx/arc_mod_installer/../libnx_min/nx//lib/libnx_min.a(set.o)
                0x0000000000011990                setsysGetFatalDirtyFlags
 *fill*         0x0000000000011a88        0x8 
 .text.setsysGetDeviceNickname
                0x0000000000011a90       0xf8 /home/jam/dev/ultimate/saltynx/arc_mod_installer/../libnx_min/nx//lib/libnx_min.a(set.o)
                0x0000000000011a90                setsysGetDeviceNickname
 *fill*         0x0000000000011b88        0x8 
 .text.setsysSetDeviceNickname
                0x0000000000011b90      0x134 /home/jam/dev/ultimate/saltynx/arc_mod_installer/../libnx_min/nx//lib/libnx_min.a(set.o)
                0x0000000000011b90                setsysSetDeviceNickname
 *fill*         0x0000000000011cc4        0xc 
 .text.ipcPrepareHeader
                0x0000000000011cd0      0x220 /home/jam/dev/ultimate/saltynx/arc_mod_installer/../libnx_min/nx//lib/libnx_min.a(fs.o)
 .text.ipcParse
                0x0000000000011ef0      0x22c /home/jam/dev/ultimate/saltynx/arc_mod_installer/../libnx_min/nx//lib/libnx_min.a(fs.o)
 *fill*         0x000000000001211c        0x4 
 .text.serviceIpcParse
                0x0000000000012120       0xb0 /home/jam/dev/ultimate/saltynx/arc_mod_installer/../libnx_min/nx//lib/libnx_min.a(fs.o)
 .text.ipcCloseObjectById
                0x00000000000121d0       0x34 /home/jam/dev/ultimate/saltynx/arc_mod_installer/../libnx_min/nx//lib/libnx_min.a(fs.o)
 *fill*         0x0000000000012204        0xc 
 .text._fsDeviceOperatorCheckInserted
                0x0000000000012210      0x19c /home/jam/dev/ultimate/saltynx/arc_mod_installer/../libnx_min/nx//lib/libnx_min.a(fs.o)
 *fill*         0x00000000000123ac        0x4 
 .text.fsFsQueryEntry.part.12
                0x00000000000123b0      0x274 /home/jam/dev/ultimate/saltynx/arc_mod_installer/../libnx_min/nx//lib/libnx_min.a(fs.o)
 *fill*         0x0000000000012624        0xc 
 .text.fsInitialize
                0x0000000000012630      0x200 /home/jam/dev/ultimate/saltynx/arc_mod_installer/../libnx_min/nx//lib/libnx_min.a(fs.o)
                0x0000000000012630                fsInitialize
 .text.fsExit   0x0000000000012830       0x9c /home/jam/dev/ultimate/saltynx/arc_mod_installer/../libnx_min/nx//lib/libnx_min.a(fs.o)
                0x0000000000012830                fsExit
 *fill*         0x00000000000128cc        0x4 
 .text.fsGetServiceSession
                0x00000000000128d0        0xc /home/jam/dev/ultimate/saltynx/arc_mod_installer/../libnx_min/nx//lib/libnx_min.a(fs.o)
                0x00000000000128d0                fsGetServiceSession
 *fill*         0x00000000000128dc        0x4 
 .text.fsOpenBisStorage
                0x00000000000128e0      0x1ec /home/jam/dev/ultimate/saltynx/arc_mod_installer/../libnx_min/nx//lib/libnx_min.a(fs.o)
                0x00000000000128e0                fsOpenBisStorage
 *fill*         0x0000000000012acc        0x4 
 .text.fsOpenBisFileSystem
                0x0000000000012ad0      0x170 /home/jam/dev/ultimate/saltynx/arc_mod_installer/../libnx_min/nx//lib/libnx_min.a(fs.o)
                0x0000000000012ad0                fsOpenBisFileSystem
 .text.fsMountSdcard
                0x0000000000012c40      0x1cc /home/jam/dev/ultimate/saltynx/arc_mod_installer/../libnx_min/nx//lib/libnx_min.a(fs.o)
                0x0000000000012c40                fsMountSdcard
 *fill*         0x0000000000012e0c        0x4 
 .text.fsMountSaveData
                0x0000000000012e10      0x208 /home/jam/dev/ultimate/saltynx/arc_mod_installer/../libnx_min/nx//lib/libnx_min.a(fs.o)
                0x0000000000012e10                fsMountSaveData
 *fill*         0x0000000000013018        0x8 
 .text.fsMountSystemSaveData
                0x0000000000013020      0x208 /home/jam/dev/ultimate/saltynx/arc_mod_installer/../libnx_min/nx//lib/libnx_min.a(fs.o)
                0x0000000000013020                fsMountSystemSaveData
 *fill*         0x0000000000013228        0x8 
 .text.fsOpenSaveDataIterator
                0x0000000000013230      0x1e0 /home/jam/dev/ultimate/saltynx/arc_mod_installer/../libnx_min/nx//lib/libnx_min.a(fs.o)
                0x0000000000013230                fsOpenSaveDataIterator
 .text.fsOpenContentStorageFileSystem
                0x0000000000013410      0x1d4 /home/jam/dev/ultimate/saltynx/arc_mod_installer/../libnx_min/nx//lib/libnx_min.a(fs.o)
                0x0000000000013410                fsOpenContentStorageFileSystem
 *fill*         0x00000000000135e4        0xc 
 .text.fsOpenDataStorageByCurrentProcess
                0x00000000000135f0      0x1cc /home/jam/dev/ultimate/saltynx/arc_mod_installer/../libnx_min/nx//lib/libnx_min.a(fs.o)
                0x00000000000135f0                fsOpenDataStorageByCurrentProcess
 *fill*         0x00000000000137bc        0x4 
 .text.fsOpenDataStorageByDataId
                0x00000000000137c0      0x200 /home/jam/dev/ultimate/saltynx/arc_mod_installer/../libnx_min/nx//lib/libnx_min.a(fs.o)
                0x00000000000137c0                fsOpenDataStorageByDataId
 .text.fsOpenDeviceOperator
                0x00000000000139c0      0x1cc /home/jam/dev/ultimate/saltynx/arc_mod_installer/../libnx_min/nx//lib/libnx_min.a(fs.o)
                0x00000000000139c0                fsOpenDeviceOperator
 *fill*         0x0000000000013b8c        0x4 
 .text.fsOpenSdCardDetectionEventNotifier
                0x0000000000013b90      0x1cc /home/jam/dev/ultimate/saltynx/arc_mod_installer/../libnx_min/nx//lib/libnx_min.a(fs.o)
                0x0000000000013b90                fsOpenSdCardDetectionEventNotifier
 *fill*         0x0000000000013d5c        0x4 
 .text.fsGetRightsIdByPath
                0x0000000000013d60      0x174 /home/jam/dev/ultimate/saltynx/arc_mod_installer/../libnx_min/nx//lib/libnx_min.a(fs.o)
                0x0000000000013d60                fsGetRightsIdByPath
 *fill*         0x0000000000013ed4        0xc 
 .text.fsGetRightsIdAndKeyGenerationByPath
                0x0000000000013ee0      0x184 /home/jam/dev/ultimate/saltynx/arc_mod_installer/../libnx_min/nx//lib/libnx_min.a(fs.o)
                0x0000000000013ee0                fsGetRightsIdAndKeyGenerationByPath
 *fill*         0x0000000000014064        0xc 
 .text.fsIsExFatSupported
                0x0000000000014070      0x138 /home/jam/dev/ultimate/saltynx/arc_mod_installer/../libnx_min/nx//lib/libnx_min.a(fs.o)
                0x0000000000014070                fsIsExFatSupported
 *fill*         0x00000000000141a8        0x8 
 .text.fsMount_SaveData
                0x00000000000141b0       0x3c /home/jam/dev/ultimate/saltynx/arc_mod_installer/../libnx_min/nx//lib/libnx_min.a(fs.o)
                0x00000000000141b0                fsMount_SaveData
 *fill*         0x00000000000141ec        0x4 
 .text.fsMount_SystemSaveData
                0x00000000000141f0       0x30 /home/jam/dev/ultimate/saltynx/arc_mod_installer/../libnx_min/nx//lib/libnx_min.a(fs.o)
                0x00000000000141f0                fsMount_SystemSaveData
 .text.fsOpenFileSystemWithId
                0x0000000000014220      0x248 /home/jam/dev/ultimate/saltynx/arc_mod_installer/../libnx_min/nx//lib/libnx_min.a(fs.o)
                0x0000000000014220                fsOpenFileSystemWithId
 *fill*         0x0000000000014468        0x8 
 .text.fsOpenFileSystem
                0x0000000000014470       0x10 /home/jam/dev/ultimate/saltynx/arc_mod_installer/../libnx_min/nx//lib/libnx_min.a(fs.o)
                0x0000000000014470                fsOpenFileSystem
 .text.fsOpenFileSystemWithPatch
                0x0000000000014480      0x184 /home/jam/dev/ultimate/saltynx/arc_mod_installer/../libnx_min/nx//lib/libnx_min.a(fs.o)
                0x0000000000014480                fsOpenFileSystemWithPatch
 *fill*         0x0000000000014604        0xc 
 .text.fsFsCreateFile
                0x0000000000014610      0x1a4 /home/jam/dev/ultimate/saltynx/arc_mod_installer/../libnx_min/nx//lib/libnx_min.a(fs.o)
                0x0000000000014610                fsFsCreateFile
 *fill*         0x00000000000147b4        0xc 
 .text.fsFsDeleteFile
                0x00000000000147c0      0x19c /home/jam/dev/ultimate/saltynx/arc_mod_installer/../libnx_min/nx//lib/libnx_min.a(fs.o)
                0x00000000000147c0                fsFsDeleteFile
 *fill*         0x000000000001495c        0x4 
 .text.fsFsCreateDirectory
                0x0000000000014960      0x19c /home/jam/dev/ultimate/saltynx/arc_mod_installer/../libnx_min/nx//lib/libnx_min.a(fs.o)
                0x0000000000014960                fsFsCreateDirectory
 *fill*         0x0000000000014afc        0x4 
 .text.fsFsDeleteDirectory
                0x0000000000014b00      0x19c /home/jam/dev/ultimate/saltynx/arc_mod_installer/../libnx_min/nx//lib/libnx_min.a(fs.o)
                0x0000000000014b00                fsFsDeleteDirectory
 *fill*         0x0000000000014c9c        0x4 
 .text.fsFsDeleteDirectoryRecursively
                0x0000000000014ca0      0x19c /home/jam/dev/ultimate/saltynx/arc_mod_installer/../libnx_min/nx//lib/libnx_min.a(fs.o)
                0x0000000000014ca0                fsFsDeleteDirectoryRecursively
 *fill*         0x0000000000014e3c        0x4 
 .text.fsFsRenameFile
                0x0000000000014e40      0x214 /home/jam/dev/ultimate/saltynx/arc_mod_installer/../libnx_min/nx//lib/libnx_min.a(fs.o)
                0x0000000000014e40                fsFsRenameFile
 *fill*         0x0000000000015054        0xc 
 .text.fsFsRenameDirectory
                0x0000000000015060      0x214 /home/jam/dev/ultimate/saltynx/arc_mod_installer/../libnx_min/nx//lib/libnx_min.a(fs.o)
                0x0000000000015060                fsFsRenameDirectory
 *fill*         0x0000000000015274        0xc 
 .text.fsFsGetEntryType
                0x0000000000015280      0x1b0 /home/jam/dev/ultimate/saltynx/arc_mod_installer/../libnx_min/nx//lib/libnx_min.a(fs.o)
                0x0000000000015280                fsFsGetEntryType
 .text.fsFsOpenFile
                0x0000000000015430      0x1e4 /home/jam/dev/ultimate/saltynx/arc_mod_installer/../libnx_min/nx//lib/libnx_min.a(fs.o)
                0x0000000000015430                fsFsOpenFile
 *fill*         0x0000000000015614        0xc 
 .text.fsFsOpenDirectory
                0x0000000000015620      0x1f8 /home/jam/dev/ultimate/saltynx/arc_mod_installer/../libnx_min/nx//lib/libnx_min.a(fs.o)
                0x0000000000015620                fsFsOpenDirectory
 *fill*         0x0000000000015818        0x8 
 .text.fsFsCommit
                0x0000000000015820      0x17c /home/jam/dev/ultimate/saltynx/arc_mod_installer/../libnx_min/nx//lib/libnx_min.a(fs.o)
                0x0000000000015820                fsFsCommit
 *fill*         0x000000000001599c        0x4 
 .text.fsFsGetFreeSpace
                0x00000000000159a0      0x1b0 /home/jam/dev/ultimate/saltynx/arc_mod_installer/../libnx_min/nx//lib/libnx_min.a(fs.o)
                0x00000000000159a0                fsFsGetFreeSpace
 .text.fsFsGetTotalSpace
                0x0000000000015b50      0x1b0 /home/jam/dev/ultimate/saltynx/arc_mod_installer/../libnx_min/nx//lib/libnx_min.a(fs.o)
                0x0000000000015b50                fsFsGetTotalSpace
 .text.fsFsCleanDirectoryRecursively
                0x0000000000015d00      0x140 /home/jam/dev/ultimate/saltynx/arc_mod_installer/../libnx_min/nx//lib/libnx_min.a(fs.o)
                0x0000000000015d00                fsFsCleanDirectoryRecursively
 .text.fsFsGetFileTimeStampRaw
                0x0000000000015e40      0x194 /home/jam/dev/ultimate/saltynx/arc_mod_installer/../libnx_min/nx//lib/libnx_min.a(fs.o)
                0x0000000000015e40                fsFsGetFileTimeStampRaw
 *fill*         0x0000000000015fd4        0xc 
 .text.fsFsQueryEntry
                0x0000000000015fe0       0x60 /home/jam/dev/ultimate/saltynx/arc_mod_installer/../libnx_min/nx//lib/libnx_min.a(fs.o)
                0x0000000000015fe0                fsFsQueryEntry
 .text.fsFsSetArchiveBit
                0x0000000000016040       0x1c /home/jam/dev/ultimate/saltynx/arc_mod_installer/../libnx_min/nx//lib/libnx_min.a(fs.o)
                0x0000000000016040                fsFsSetArchiveBit
 *fill*         0x000000000001605c        0x4 
 .text.fsFsClose
                0x0000000000016060       0x6c /home/jam/dev/ultimate/saltynx/arc_mod_installer/../libnx_min/nx//lib/libnx_min.a(fs.o)
                0x0000000000016060                fsFsClose
 *fill*         0x00000000000160cc        0x4 
 .text.fsFileRead
                0x00000000000160d0      0x1f8 /home/jam/dev/ultimate/saltynx/arc_mod_installer/../libnx_min/nx//lib/libnx_min.a(fs.o)
                0x00000000000160d0                fsFileRead
 *fill*         0x00000000000162c8        0x8 
 .text.fsFileWrite
                0x00000000000162d0      0x1cc /home/jam/dev/ultimate/saltynx/arc_mod_installer/../libnx_min/nx//lib/libnx_min.a(fs.o)
                0x00000000000162d0                fsFileWrite
 *fill*         0x000000000001649c        0x4 
 .text.fsFileFlush
                0x00000000000164a0      0x17c /home/jam/dev/ultimate/saltynx/arc_mod_installer/../libnx_min/nx//lib/libnx_min.a(fs.o)
                0x00000000000164a0                fsFileFlush
 *fill*         0x000000000001661c        0x4 
 .text.fsFileSetSize
                0x0000000000016620      0x18c /home/jam/dev/ultimate/saltynx/arc_mod_installer/../libnx_min/nx//lib/libnx_min.a(fs.o)
                0x0000000000016620                fsFileSetSize
 *fill*         0x00000000000167ac        0x4 
 .text.fsFileGetSize
                0x00000000000167b0      0x194 /home/jam/dev/ultimate/saltynx/arc_mod_installer/../libnx_min/nx//lib/libnx_min.a(fs.o)
                0x00000000000167b0                fsFileGetSize
 *fill*         0x0000000000016944        0xc 
 .text.fsFileOperateRange
                0x0000000000016950      0x180 /home/jam/dev/ultimate/saltynx/arc_mod_installer/../libnx_min/nx//lib/libnx_min.a(fs.o)
                0x0000000000016950                fsFileOperateRange
 .text.fsFileClose
                0x0000000000016ad0       0x6c /home/jam/dev/ultimate/saltynx/arc_mod_installer/../libnx_min/nx//lib/libnx_min.a(fs.o)
                0x0000000000016ad0                fsFileClose
 *fill*         0x0000000000016b3c        0x4 
 .text.fsDirClose
                0x0000000000016b40       0x6c /home/jam/dev/ultimate/saltynx/arc_mod_installer/../libnx_min/nx//lib/libnx_min.a(fs.o)
                0x0000000000016b40                fsDirClose
 *fill*         0x0000000000016bac        0x4 
 .text.fsDirRead
                0x0000000000016bb0      0x1ec /home/jam/dev/ultimate/saltynx/arc_mod_installer/../libnx_min/nx//lib/libnx_min.a(fs.o)
                0x0000000000016bb0                fsDirRead
 *fill*         0x0000000000016d9c        0x4 
 .text.fsDirGetEntryCount
                0x0000000000016da0      0x198 /home/jam/dev/ultimate/saltynx/arc_mod_installer/../libnx_min/nx//lib/libnx_min.a(fs.o)
                0x0000000000016da0                fsDirGetEntryCount
 *fill*         0x0000000000016f38        0x8 
 .text.fsStorageRead
                0x0000000000016f40      0x1d0 /home/jam/dev/ultimate/saltynx/arc_mod_installer/../libnx_min/nx//lib/libnx_min.a(fs.o)
                0x0000000000016f40                fsStorageRead
 .text.fsStorageWrite
                0x0000000000017110      0x1d0 /home/jam/dev/ultimate/saltynx/arc_mod_installer/../libnx_min/nx//lib/libnx_min.a(fs.o)
                0x0000000000017110                fsStorageWrite
 .text.fsStorageFlush
                0x00000000000172e0      0x17c /home/jam/dev/ultimate/saltynx/arc_mod_installer/../libnx_min/nx//lib/libnx_min.a(fs.o)
                0x00000000000172e0                fsStorageFlush
 *fill*         0x000000000001745c        0x4 
 .text.fsStorageSetSize
                0x0000000000017460      0x18c /home/jam/dev/ultimate/saltynx/arc_mod_installer/../libnx_min/nx//lib/libnx_min.a(fs.o)
                0x0000000000017460                fsStorageSetSize
 *fill*         0x00000000000175ec        0x4 
 .text.fsStorageGetSize
                0x00000000000175f0      0x194 /home/jam/dev/ultimate/saltynx/arc_mod_installer/../libnx_min/nx//lib/libnx_min.a(fs.o)
                0x00000000000175f0                fsStorageGetSize
 *fill*         0x0000000000017784        0xc 
 .text.fsStorageOperateRange
                0x0000000000017790      0x180 /home/jam/dev/ultimate/saltynx/arc_mod_installer/../libnx_min/nx//lib/libnx_min.a(fs.o)
                0x0000000000017790                fsStorageOperateRange
 .text.fsStorageClose
                0x0000000000017910       0x6c /home/jam/dev/ultimate/saltynx/arc_mod_installer/../libnx_min/nx//lib/libnx_min.a(fs.o)
                0x0000000000017910                fsStorageClose
 *fill*         0x000000000001797c        0x4 
 .text.fsSaveDataIteratorRead
                0x0000000000017980      0x1d0 /home/jam/dev/ultimate/saltynx/arc_mod_installer/../libnx_min/nx//lib/libnx_min.a(fs.o)
                0x0000000000017980                fsSaveDataIteratorRead
 .text.fsSaveDataIteratorClose
                0x0000000000017b50       0x6c /home/jam/dev/ultimate/saltynx/arc_mod_installer/../libnx_min/nx//lib/libnx_min.a(fs.o)
                0x0000000000017b50                fsSaveDataIteratorClose
 *fill*         0x0000000000017bbc        0x4 
 .text.fsEventNotifierGetEventHandle
                0x0000000000017bc0      0x188 /home/jam/dev/ultimate/saltynx/arc_mod_installer/../libnx_min/nx//lib/libnx_min.a(fs.o)
                0x0000000000017bc0                fsEventNotifierGetEventHandle
 *fill*         0x0000000000017d48        0x8 
 .text.fsEventNotifierClose
                0x0000000000017d50       0x6c /home/jam/dev/ultimate/saltynx/arc_mod_installer/../libnx_min/nx//lib/libnx_min.a(fs.o)
                0x0000000000017d50                fsEventNotifierClose
 *fill*         0x0000000000017dbc        0x4 
 .text.fsDeviceOperatorIsSdCardInserted
                0x0000000000017dc0        0xc /home/jam/dev/ultimate/saltynx/arc_mod_installer/../libnx_min/nx//lib/libnx_min.a(fs.o)
                0x0000000000017dc0                fsDeviceOperatorIsSdCardInserted
 *fill*         0x0000000000017dcc        0x4 
 .text.fsDeviceOperatorIsGameCardInserted
                0x0000000000017dd0        0xc /home/jam/dev/ultimate/saltynx/arc_mod_installer/../libnx_min/nx//lib/libnx_min.a(fs.o)
                0x0000000000017dd0                fsDeviceOperatorIsGameCardInserted
 *fill*         0x0000000000017ddc        0x4 
 .text.fsDeviceOperatorGetGameCardHandle
                0x0000000000017de0      0x190 /home/jam/dev/ultimate/saltynx/arc_mod_installer/../libnx_min/nx//lib/libnx_min.a(fs.o)
                0x0000000000017de0                fsDeviceOperatorGetGameCardHandle
 .text.fsDeviceOperatorGetGameCardAttribute
                0x0000000000017f70      0x18c /home/jam/dev/ultimate/saltynx/arc_mod_installer/../libnx_min/nx//lib/libnx_min.a(fs.o)
                0x0000000000017f70                fsDeviceOperatorGetGameCardAttribute
 *fill*         0x00000000000180fc        0x4 
 .text.fsDeviceOperatorClose
                0x0000000000018100       0x6c /home/jam/dev/ultimate/saltynx/arc_mod_installer/../libnx_min/nx//lib/libnx_min.a(fs.o)
                0x0000000000018100                fsDeviceOperatorClose
 *fill*         0x000000000001816c        0x4 
 .text.hosversionGet
                0x0000000000018170       0x10 /home/jam/dev/ultimate/saltynx/arc_mod_installer/../libnx_min/nx//lib/libnx_min.a(hosversion.o)
                0x0000000000018170                hosversionGet
 .text.hosversionSet
                0x0000000000018180       0x10 /home/jam/dev/ultimate/saltynx/arc_mod_installer/../libnx_min/nx//lib/libnx_min.a(hosversion.o)
                0x0000000000018180                hosversionSet
 .text.detectKernelVersion
                0x0000000000018190      0x17c /home/jam/dev/ultimate/saltynx/arc_mod_installer/../libnx_min/nx//lib/libnx_min.a(detect.o)
                0x0000000000018190                detectKernelVersion
 *fill*         0x000000000001830c        0x4 
 .text.detectDebugger
                0x0000000000018310       0x30 /home/jam/dev/ultimate/saltynx/arc_mod_installer/../libnx_min/nx//lib/libnx_min.a(detect.o)
                0x0000000000018310                detectDebugger
 .text.detectJitKernelPatch
                0x0000000000018340       0xdc /home/jam/dev/ultimate/saltynx/arc_mod_installer/../libnx_min/nx//lib/libnx_min.a(detect.o)
                0x0000000000018340                detectJitKernelPatch
 *fill*         0x000000000001841c        0x4 
 .text.detectIgnoreJitKernelPatch
                0x0000000000018420       0x44 /home/jam/dev/ultimate/saltynx/arc_mod_installer/../libnx_min/nx//lib/libnx_min.a(detect.o)
                0x0000000000018420                detectIgnoreJitKernelPatch
 *fill*         0x0000000000018464        0xc 
 .text.shmemCreate
                0x0000000000018470       0x14 /home/jam/dev/ultimate/saltynx/arc_mod_installer/../libnx_min/nx//lib/libnx_min.a(shmem.o)
                0x0000000000018470                shmemCreate
 *fill*         0x0000000000018484        0xc 
 .text.shmemLoadRemote
                0x0000000000018490       0x14 /home/jam/dev/ultimate/saltynx/arc_mod_installer/../libnx_min/nx//lib/libnx_min.a(shmem.o)
                0x0000000000018490                shmemLoadRemote
 *fill*         0x00000000000184a4        0xc 
 .text.shmemMap
                0x00000000000184b0       0x84 /home/jam/dev/ultimate/saltynx/arc_mod_installer/../libnx_min/nx//lib/libnx_min.a(shmem.o)
                0x00000000000184b0                shmemMap
 *fill*         0x0000000000018534        0xc 
 .text.shmemUnmap
                0x0000000000018540       0x58 /home/jam/dev/ultimate/saltynx/arc_mod_installer/../libnx_min/nx//lib/libnx_min.a(shmem.o)
                0x0000000000018540                shmemUnmap
 *fill*         0x0000000000018598        0x8 
 .text.shmemClose
                0x00000000000185a0       0x44 /home/jam/dev/ultimate/saltynx/arc_mod_installer/../libnx_min/nx//lib/libnx_min.a(shmem.o)
                0x00000000000185a0                shmemClose
 *fill*         0x00000000000185e4        0xc 
 .text._waitLoop
                0x00000000000185f0      0x104 /home/jam/dev/ultimate/saltynx/arc_mod_installer/../libnx_min/nx//lib/libnx_min.a(wait.o)
 *fill*         0x00000000000186f4        0xc 
 .text._waitObjectsImpl
                0x0000000000018700      0x338 /home/jam/dev/ultimate/saltynx/arc_mod_installer/../libnx_min/nx//lib/libnx_min.a(wait.o)
 *fill*         0x0000000000018a38        0x8 
 .text.waitObjects
                0x0000000000018a40        0xc /home/jam/dev/ultimate/saltynx/arc_mod_installer/../libnx_min/nx//lib/libnx_min.a(wait.o)
                0x0000000000018a40                waitObjects
 *fill*         0x0000000000018a4c        0x4 
 .text.waitHandles
                0x0000000000018a50        0xc /home/jam/dev/ultimate/saltynx/arc_mod_installer/../libnx_min/nx//lib/libnx_min.a(wait.o)
                0x0000000000018a50                waitHandles
 *fill*         0x0000000000018a5c        0x4 
 .text.rwlockInit
                0x0000000000018a60        0x8 /home/jam/dev/ultimate/saltynx/arc_mod_installer/../libnx_min/nx//lib/libnx_min.a(rwlock.o)
                0x0000000000018a60                rwlockInit
 *fill*         0x0000000000018a68        0x8 
 .text.rwlockReadLock
                0x0000000000018a70       0x58 /home/jam/dev/ultimate/saltynx/arc_mod_installer/../libnx_min/nx//lib/libnx_min.a(rwlock.o)
                0x0000000000018a70                rwlockReadLock
 *fill*         0x0000000000018ac8        0x8 
 .text.rwlockReadUnlock
                0x0000000000018ad0       0x5c /home/jam/dev/ultimate/saltynx/arc_mod_installer/../libnx_min/nx//lib/libnx_min.a(rwlock.o)
                0x0000000000018ad0                rwlockReadUnlock
 *fill*         0x0000000000018b2c        0x4 
 .text.rwlockWriteLock
                0x0000000000018b30       0x84 /home/jam/dev/ultimate/saltynx/arc_mod_installer/../libnx_min/nx//lib/libnx_min.a(rwlock.o)
                0x0000000000018b30                rwlockWriteLock
 *fill*         0x0000000000018bb4        0xc 
 .text.rwlockWriteUnlock
                0x0000000000018bc0       0x3c /home/jam/dev/ultimate/saltynx/arc_mod_installer/../libnx_min/nx//lib/libnx_min.a(rwlock.o)
                0x0000000000018bc0                rwlockWriteUnlock
 *fill*         0x0000000000018bfc        0x4 
 .text.tmemCreate
                0x0000000000018c00       0xa8 /home/jam/dev/ultimate/saltynx/arc_mod_installer/../libnx_min/nx//lib/libnx_min.a(tmem.o)
                0x0000000000018c00                tmemCreate
 *fill*         0x0000000000018ca8        0x8 
 .text.tmemCreateFromMemory
                0x0000000000018cb0       0x2c /home/jam/dev/ultimate/saltynx/arc_mod_installer/../libnx_min/nx//lib/libnx_min.a(tmem.o)
                0x0000000000018cb0                tmemCreateFromMemory
 *fill*         0x0000000000018cdc        0x4 
 .text.tmemLoadRemote
                0x0000000000018ce0       0x14 /home/jam/dev/ultimate/saltynx/arc_mod_installer/../libnx_min/nx//lib/libnx_min.a(tmem.o)
                0x0000000000018ce0                tmemLoadRemote
 *fill*         0x0000000000018cf4        0xc 
 .text.tmemMap  0x0000000000018d00       0x84 /home/jam/dev/ultimate/saltynx/arc_mod_installer/../libnx_min/nx//lib/libnx_min.a(tmem.o)
                0x0000000000018d00                tmemMap
 *fill*         0x0000000000018d84        0xc 
 .text.tmemUnmap
                0x0000000000018d90       0x58 /home/jam/dev/ultimate/saltynx/arc_mod_installer/../libnx_min/nx//lib/libnx_min.a(tmem.o)
                0x0000000000018d90                tmemUnmap
 *fill*         0x0000000000018de8        0x8 
 .text.tmemClose
                0x0000000000018df0       0x68 /home/jam/dev/ultimate/saltynx/arc_mod_installer/../libnx_min/nx//lib/libnx_min.a(tmem.o)
                0x0000000000018df0                tmemClose
 *fill*         0x0000000000018e58        0x8 
 .text.eventCreate
                0x0000000000018e60       0x38 /home/jam/dev/ultimate/saltynx/arc_mod_installer/../libnx_min/nx//lib/libnx_min.a(event.o)
                0x0000000000018e60                eventCreate
 *fill*         0x0000000000018e98        0x8 
 .text.eventLoadRemote
                0x0000000000018ea0        0xc /home/jam/dev/ultimate/saltynx/arc_mod_installer/../libnx_min/nx//lib/libnx_min.a(event.o)
                0x0000000000018ea0                eventLoadRemote
 *fill*         0x0000000000018eac        0x4 
 .text.eventWait
                0x0000000000018eb0       0x38 /home/jam/dev/ultimate/saltynx/arc_mod_installer/../libnx_min/nx//lib/libnx_min.a(event.o)
                0x0000000000018eb0                eventWait
 *fill*         0x0000000000018ee8        0x8 
 .text.eventFire
                0x0000000000018ef0       0x14 /home/jam/dev/ultimate/saltynx/arc_mod_installer/../libnx_min/nx//lib/libnx_min.a(event.o)
                0x0000000000018ef0                eventFire
 *fill*         0x0000000000018f04        0xc 
 .text.eventClear
                0x0000000000018f10       0x24 /home/jam/dev/ultimate/saltynx/arc_mod_installer/../libnx_min/nx//lib/libnx_min.a(event.o)
                0x0000000000018f10                eventClear
 *fill*         0x0000000000018f34        0xc 
 .text.eventClose
                0x0000000000018f40       0x50 /home/jam/dev/ultimate/saltynx/arc_mod_installer/../libnx_min/nx//lib/libnx_min.a(event.o)
                0x0000000000018f40                eventClose
 .text.bsearch  0x0000000000018f90       0xb8 /opt/devkitpro/devkitA64/lib/gcc/aarch64-none-elf/8.3.0/../../../../aarch64-none-elf/lib/pic/libg.a(lib_a-bsearch.o)
                0x0000000000018f90                bsearch
 .text.__set_ctype
                0x0000000000019048       0x10 /opt/devkitpro/devkitA64/lib/gcc/aarch64-none-elf/8.3.0/../../../../aarch64-none-elf/lib/pic/libg.a(lib_a-ctype_.o)
                0x0000000000019048                __set_ctype
 .text.__errno  0x0000000000019058       0x14 /opt/devkitpro/devkitA64/lib/gcc/aarch64-none-elf/8.3.0/../../../../aarch64-none-elf/lib/pic/libg.a(lib_a-errno.o)
                0x0000000000019058                __errno
 *fill*         0x000000000001906c        0x4 
 .text.__libc_fini_array
                0x0000000000019070       0x44 /opt/devkitpro/devkitA64/lib/gcc/aarch64-none-elf/8.3.0/../../../../aarch64-none-elf/lib/pic/libg.a(lib_a-fini.o)
                0x0000000000019070                __libc_fini_array
 *fill*         0x00000000000190b4        0x4 
 .text.__libc_init_array
                0x00000000000190b8       0x8c /opt/devkitpro/devkitA64/lib/gcc/aarch64-none-elf/8.3.0/../../../../aarch64-none-elf/lib/pic/libg.a(lib_a-init.o)
                0x00000000000190b8                __libc_init_array
 *fill*         0x0000000000019144        0x4 
 .text.memalign
                0x0000000000019148       0x30 /opt/devkitpro/devkitA64/lib/gcc/aarch64-none-elf/8.3.0/../../../../aarch64-none-elf/lib/pic/libg.a(lib_a-malign.o)
                0x0000000000019148                memalign
 .text._memalign_r
                0x0000000000019178      0x198 /opt/devkitpro/devkitA64/lib/gcc/aarch64-none-elf/8.3.0/../../../../aarch64-none-elf/lib/pic/libg.a(lib_a-malignr.o)
                0x0000000000019178                _memalign_r
 .text.malloc   0x0000000000019310       0x1c /opt/devkitpro/devkitA64/lib/gcc/aarch64-none-elf/8.3.0/../../../../aarch64-none-elf/lib/pic/libg.a(lib_a-malloc.o)
                0x0000000000019310                malloc
 *fill*         0x000000000001932c        0x4 
 .text.free     0x0000000000019330       0x1c /opt/devkitpro/devkitA64/lib/gcc/aarch64-none-elf/8.3.0/../../../../aarch64-none-elf/lib/pic/libg.a(lib_a-malloc.o)
                0x0000000000019330                free
 *fill*         0x000000000001934c        0x4 
 .text._malloc_r
                0x0000000000019350      0x87c /opt/devkitpro/devkitA64/lib/gcc/aarch64-none-elf/8.3.0/../../../../aarch64-none-elf/lib/pic/libg.a(lib_a-mallocr.o)
                0x0000000000019350                _malloc_r
 *fill*         0x0000000000019bcc       0x34 
 .text          0x0000000000019c00      0x16c /opt/devkitpro/devkitA64/lib/gcc/aarch64-none-elf/8.3.0/../../../../aarch64-none-elf/lib/pic/libg.a(lib_a-memcpy.o)
                0x0000000000019c00                memcpy
 *fill*         0x0000000000019d6c       0x14 
 .text          0x0000000000019d80      0x1dc /opt/devkitpro/devkitA64/lib/gcc/aarch64-none-elf/8.3.0/../../../../aarch64-none-elf/lib/pic/libg.a(lib_a-memset.o)
                0x0000000000019d80                memset
 *fill*         0x0000000000019f5c        0x4 
 .text.__malloc_lock
                0x0000000000019f60        0xc /opt/devkitpro/devkitA64/lib/gcc/aarch64-none-elf/8.3.0/../../../../aarch64-none-elf/lib/pic/libg.a(lib_a-mlock.o)
                0x0000000000019f60                __malloc_lock
 *fill*         0x0000000000019f6c        0x4 
 .text.__malloc_unlock
                0x0000000000019f70        0xc /opt/devkitpro/devkitA64/lib/gcc/aarch64-none-elf/8.3.0/../../../../aarch64-none-elf/lib/pic/libg.a(lib_a-mlock.o)
                0x0000000000019f70                __malloc_unlock
 *fill*         0x0000000000019f7c        0x4 
 .text.setenv   0x0000000000019f80       0x3c /opt/devkitpro/devkitA64/lib/gcc/aarch64-none-elf/8.3.0/../../../../aarch64-none-elf/lib/pic/libg.a(lib_a-setenv.o)
                0x0000000000019f80                setenv
 *fill*         0x0000000000019fbc        0x4 
 .text.unsetenv
                0x0000000000019fc0       0x1c /opt/devkitpro/devkitA64/lib/gcc/aarch64-none-elf/8.3.0/../../../../aarch64-none-elf/lib/pic/libg.a(lib_a-setenv.o)
                0x0000000000019fc0                unsetenv
 *fill*         0x0000000000019fdc        0x4 
 .text._setenv_r
                0x0000000000019fe0      0x264 /opt/devkitpro/devkitA64/lib/gcc/aarch64-none-elf/8.3.0/../../../../aarch64-none-elf/lib/pic/libg.a(lib_a-setenv_r.o)
                0x0000000000019fe0                _setenv_r
 *fill*         0x000000000001a244        0x4 
 .text._unsetenv_r
                0x000000000001a248       0xd4 /opt/devkitpro/devkitA64/lib/gcc/aarch64-none-elf/8.3.0/../../../../aarch64-none-elf/lib/pic/libg.a(lib_a-setenv_r.o)
                0x000000000001a248                _unsetenv_r
 *fill*         0x000000000001a31c        0x4 
 .text._snprintf_r
                0x000000000001a320      0x130 /opt/devkitpro/devkitA64/lib/gcc/aarch64-none-elf/8.3.0/../../../../aarch64-none-elf/lib/pic/libg.a(lib_a-snprintf.o)
                0x000000000001a320                _snprintf_r
 .text.snprintf
                0x000000000001a450      0x14c /opt/devkitpro/devkitA64/lib/gcc/aarch64-none-elf/8.3.0/../../../../aarch64-none-elf/lib/pic/libg.a(lib_a-snprintf.o)
                0x000000000001a450                snprintf
 .text          0x000000000001a59c       0xdc /opt/devkitpro/devkitA64/lib/gcc/aarch64-none-elf/8.3.0/../../../../aarch64-none-elf/lib/pic/libg.a(lib_a-strchr.o)
                0x000000000001a59c                strchr
 *fill*         0x000000000001a678        0x8 
 .text          0x000000000001a680      0x1b8 /opt/devkitpro/devkitA64/lib/gcc/aarch64-none-elf/8.3.0/../../../../aarch64-none-elf/lib/pic/libg.a(lib_a-strcpy.o)
                0x000000000001a680                strcpy
 *fill*         0x000000000001a838        0x8 
 .text          0x000000000001a840      0x140 /opt/devkitpro/devkitA64/lib/gcc/aarch64-none-elf/8.3.0/../../../../aarch64-none-elf/lib/pic/libg.a(lib_a-strlen.o)
                0x000000000001a840                strlen
 .text.strncat  0x000000000001a980       0x84 /opt/devkitpro/devkitA64/lib/gcc/aarch64-none-elf/8.3.0/../../../../aarch64-none-elf/lib/pic/libg.a(lib_a-strncat.o)
                0x000000000001a980                strncat
 *fill*         0x000000000001aa04       0x3c 
 .text          0x000000000001aa40      0x1d4 /opt/devkitpro/devkitA64/lib/gcc/aarch64-none-elf/8.3.0/../../../../aarch64-none-elf/lib/pic/libg.a(lib_a-strncmp.o)
                0x000000000001aa5c                strncmp
 *fill*         0x000000000001ac14        0x4 
 .text.strncpy  0x000000000001ac18       0xa8 /opt/devkitpro/devkitA64/lib/gcc/aarch64-none-elf/8.3.0/../../../../aarch64-none-elf/lib/pic/libg.a(lib_a-strncpy.o)
                0x000000000001ac18                strncpy
 .text          0x000000000001acc0       0xe0 /opt/devkitpro/devkitA64/lib/gcc/aarch64-none-elf/8.3.0/../../../../aarch64-none-elf/lib/pic/libg.a(lib_a-strnlen.o)
                0x000000000001ace4                strnlen
 .text          0x000000000001ada0      0x100 /opt/devkitpro/devkitA64/lib/gcc/aarch64-none-elf/8.3.0/../../../../aarch64-none-elf/lib/pic/libg.a(lib_a-strrchr.o)
                0x000000000001ada0                strrchr
 .text._strtol_l.isra.0
                0x000000000001aea0      0x1a0 /opt/devkitpro/devkitA64/lib/gcc/aarch64-none-elf/8.3.0/../../../../aarch64-none-elf/lib/pic/libg.a(lib_a-strtol.o)
 .text._strtol_r
                0x000000000001b040       0x34 /opt/devkitpro/devkitA64/lib/gcc/aarch64-none-elf/8.3.0/../../../../aarch64-none-elf/lib/pic/libg.a(lib_a-strtol.o)
                0x000000000001b040                _strtol_r
 *fill*         0x000000000001b074        0x4 
 .text.strtol_l
                0x000000000001b078       0x3c /opt/devkitpro/devkitA64/lib/gcc/aarch64-none-elf/8.3.0/../../../../aarch64-none-elf/lib/pic/libg.a(lib_a-strtol.o)
                0x000000000001b078                strtol_l
 *fill*         0x000000000001b0b4        0x4 
 .text.strtol   0x000000000001b0b8       0x48 /opt/devkitpro/devkitA64/lib/gcc/aarch64-none-elf/8.3.0/../../../../aarch64-none-elf/lib/pic/libg.a(lib_a-strtol.o)
                0x000000000001b0b8                strtol
 .text.get_arg  0x000000000001b100      0x76c /opt/devkitpro/devkitA64/lib/gcc/aarch64-none-elf/8.3.0/../../../../aarch64-none-elf/lib/pic/libg.a(lib_a-svfprintf.o)
 .text._svfprintf_r
                0x000000000001b86c     0x3b38 /opt/devkitpro/devkitA64/lib/gcc/aarch64-none-elf/8.3.0/../../../../aarch64-none-elf/lib/pic/libg.a(lib_a-svfprintf.o)
                0x000000000001b86c                _svfprintf_r
 *fill*         0x000000000001f3a4        0x4 
 .text._wcrtomb_r
                0x000000000001f3a8       0xd0 /opt/devkitpro/devkitA64/lib/gcc/aarch64-none-elf/8.3.0/../../../../aarch64-none-elf/lib/pic/libg.a(lib_a-wcrtomb.o)
                0x000000000001f3a8                _wcrtomb_r
 .text.wcrtomb  0x000000000001f478       0xdc /opt/devkitpro/devkitA64/lib/gcc/aarch64-none-elf/8.3.0/../../../../aarch64-none-elf/lib/pic/libg.a(lib_a-wcrtomb.o)
                0x000000000001f478                wcrtomb
 *fill*         0x000000000001f554        0x4 
 .text._wcsrtombs_r
                0x000000000001f558       0x10 /opt/devkitpro/devkitA64/lib/gcc/aarch64-none-elf/8.3.0/../../../../aarch64-none-elf/lib/pic/libg.a(lib_a-wcsrtombs.o)
                0x000000000001f558                _wcsrtombs_r
 .text.wcsrtombs
                0x000000000001f568       0x44 /opt/devkitpro/devkitA64/lib/gcc/aarch64-none-elf/8.3.0/../../../../aarch64-none-elf/lib/pic/libg.a(lib_a-wcsrtombs.o)
                0x000000000001f568                wcsrtombs
 *fill*         0x000000000001f5ac        0x4 
 .text.__call_exitprocs
                0x000000000001f5b0      0x124 /opt/devkitpro/devkitA64/lib/gcc/aarch64-none-elf/8.3.0/../../../../aarch64-none-elf/lib/pic/libg.a(lib_a-__call_atexit.o)
                0x000000000001f5b0                __call_exitprocs
 *fill*         0x000000000001f6d4        0x4 
 .text.quorem   0x000000000001f6d8      0x1a8 /opt/devkitpro/devkitA64/lib/gcc/aarch64-none-elf/8.3.0/../../../../aarch64-none-elf/lib/pic/libg.a(lib_a-dtoa.o)
 .text._dtoa_r  0x000000000001f880     0x10dc /opt/devkitpro/devkitA64/lib/gcc/aarch64-none-elf/8.3.0/../../../../aarch64-none-elf/lib/pic/libg.a(lib_a-dtoa.o)
                0x000000000001f880                _dtoa_r
 *fill*         0x000000000002095c        0x4 
 .text.__env_lock
                0x0000000000020960        0xc /opt/devkitpro/devkitA64/lib/gcc/aarch64-none-elf/8.3.0/../../../../aarch64-none-elf/lib/pic/libg.a(lib_a-envlock.o)
                0x0000000000020960                __env_lock
 *fill*         0x000000000002096c        0x4 
 .text.__env_unlock
                0x0000000000020970        0xc /opt/devkitpro/devkitA64/lib/gcc/aarch64-none-elf/8.3.0/../../../../aarch64-none-elf/lib/pic/libg.a(lib_a-envlock.o)
                0x0000000000020970                __env_unlock
 *fill*         0x000000000002097c        0x4 
 .text._malloc_trim_r
                0x0000000000020980      0x118 /opt/devkitpro/devkitA64/lib/gcc/aarch64-none-elf/8.3.0/../../../../aarch64-none-elf/lib/pic/libg.a(lib_a-freer.o)
                0x0000000000020980                _malloc_trim_r
 .text._free_r  0x0000000000020a98      0x2f4 /opt/devkitpro/devkitA64/lib/gcc/aarch64-none-elf/8.3.0/../../../../aarch64-none-elf/lib/pic/libg.a(lib_a-freer.o)
                0x0000000000020a98                _free_r
 *fill*         0x0000000000020d8c        0x4 
 .text._findenv_r
                0x0000000000020d90      0x100 /opt/devkitpro/devkitA64/lib/gcc/aarch64-none-elf/8.3.0/../../../../aarch64-none-elf/lib/pic/libg.a(lib_a-getenv_r.o)
                0x0000000000020d90                _findenv_r
 .text._getenv_r
                0x0000000000020e90       0x18 /opt/devkitpro/devkitA64/lib/gcc/aarch64-none-elf/8.3.0/../../../../aarch64-none-elf/lib/pic/libg.a(lib_a-getenv_r.o)
                0x0000000000020e90                _getenv_r
 .text.__localeconv_l
                0x0000000000020ea8        0x8 /opt/devkitpro/devkitA64/lib/gcc/aarch64-none-elf/8.3.0/../../../../aarch64-none-elf/lib/pic/libg.a(lib_a-localeconv.o)
                0x0000000000020ea8                __localeconv_l
 .text._localeconv_r
                0x0000000000020eb0       0x28 /opt/devkitpro/devkitA64/lib/gcc/aarch64-none-elf/8.3.0/../../../../aarch64-none-elf/lib/pic/libg.a(lib_a-localeconv.o)
                0x0000000000020eb0                _localeconv_r
 .text.localeconv
                0x0000000000020ed8       0x28 /opt/devkitpro/devkitA64/lib/gcc/aarch64-none-elf/8.3.0/../../../../aarch64-none-elf/lib/pic/libg.a(lib_a-localeconv.o)
                0x0000000000020ed8                localeconv
 .text.currentlocale
                0x0000000000020f00       0xb8 /opt/devkitpro/devkitA64/lib/gcc/aarch64-none-elf/8.3.0/../../../../aarch64-none-elf/lib/pic/libg.a(lib_a-locale.o)
 .text.__loadlocale
                0x0000000000020fb8      0x7a8 /opt/devkitpro/devkitA64/lib/gcc/aarch64-none-elf/8.3.0/../../../../aarch64-none-elf/lib/pic/libg.a(lib_a-locale.o)
                0x0000000000020fb8                __loadlocale
 .text.__get_locale_env
                0x0000000000021760       0x88 /opt/devkitpro/devkitA64/lib/gcc/aarch64-none-elf/8.3.0/../../../../aarch64-none-elf/lib/pic/libg.a(lib_a-locale.o)
                0x0000000000021760                __get_locale_env
 .text._setlocale_r
                0x00000000000217e8      0x3a4 /opt/devkitpro/devkitA64/lib/gcc/aarch64-none-elf/8.3.0/../../../../aarch64-none-elf/lib/pic/libg.a(lib_a-locale.o)
                0x00000000000217e8                _setlocale_r
 *fill*         0x0000000000021b8c        0x4 
 .text.__locale_mb_cur_max
                0x0000000000021b90       0x2c /opt/devkitpro/devkitA64/lib/gcc/aarch64-none-elf/8.3.0/../../../../aarch64-none-elf/lib/pic/libg.a(lib_a-locale.o)
                0x0000000000021b90                __locale_mb_cur_max
 *fill*         0x0000000000021bbc        0x4 
 .text.setlocale
                0x0000000000021bc0       0x30 /opt/devkitpro/devkitA64/lib/gcc/aarch64-none-elf/8.3.0/../../../../aarch64-none-elf/lib/pic/libg.a(lib_a-locale.o)
                0x0000000000021bc0                setlocale
 .text._mbtowc_r
                0x0000000000021bf0       0x4c /opt/devkitpro/devkitA64/lib/gcc/aarch64-none-elf/8.3.0/../../../../aarch64-none-elf/lib/pic/libg.a(lib_a-mbtowc_r.o)
                0x0000000000021bf0                _mbtowc_r
 *fill*         0x0000000000021c3c        0x4 
 .text.__ascii_mbtowc
                0x0000000000021c40       0x48 /opt/devkitpro/devkitA64/lib/gcc/aarch64-none-elf/8.3.0/../../../../aarch64-none-elf/lib/pic/libg.a(lib_a-mbtowc_r.o)
                0x0000000000021c40                __ascii_mbtowc
 .text.__utf8_mbtowc
                0x0000000000021c88      0x2c8 /opt/devkitpro/devkitA64/lib/gcc/aarch64-none-elf/8.3.0/../../../../aarch64-none-elf/lib/pic/libg.a(lib_a-mbtowc_r.o)
                0x0000000000021c88                __utf8_mbtowc
 .text.__sjis_mbtowc
                0x0000000000021f50       0xcc /opt/devkitpro/devkitA64/lib/gcc/aarch64-none-elf/8.3.0/../../../../aarch64-none-elf/lib/pic/libg.a(lib_a-mbtowc_r.o)
                0x0000000000021f50                __sjis_mbtowc
 *fill*         0x000000000002201c        0x4 
 .text.__eucjp_mbtowc
                0x0000000000022020      0x120 /opt/devkitpro/devkitA64/lib/gcc/aarch64-none-elf/8.3.0/../../../../aarch64-none-elf/lib/pic/libg.a(lib_a-mbtowc_r.o)
                0x0000000000022020                __eucjp_mbtowc
 .text.__jis_mbtowc
                0x0000000000022140      0x1d4 /opt/devkitpro/devkitA64/lib/gcc/aarch64-none-elf/8.3.0/../../../../aarch64-none-elf/lib/pic/libg.a(lib_a-mbtowc_r.o)
                0x0000000000022140                __jis_mbtowc
 .text          0x0000000000022314       0xd8 /opt/devkitpro/devkitA64/lib/gcc/aarch64-none-elf/8.3.0/../../../../aarch64-none-elf/lib/pic/libg.a(lib_a-memchr.o)
                0x0000000000022314                memchr
 *fill*         0x00000000000223ec        0x4 
 .text._Balloc  0x00000000000223f0       0x90 /opt/devkitpro/devkitA64/lib/gcc/aarch64-none-elf/8.3.0/../../../../aarch64-none-elf/lib/pic/libg.a(lib_a-mprec.o)
                0x00000000000223f0                _Balloc
 .text._Bfree   0x0000000000022480       0x1c /opt/devkitpro/devkitA64/lib/gcc/aarch64-none-elf/8.3.0/../../../../aarch64-none-elf/lib/pic/libg.a(lib_a-mprec.o)
                0x0000000000022480                _Bfree
 *fill*         0x000000000002249c        0x4 
 .text.__multadd
                0x00000000000224a0       0xe8 /opt/devkitpro/devkitA64/lib/gcc/aarch64-none-elf/8.3.0/../../../../aarch64-none-elf/lib/pic/libg.a(lib_a-mprec.o)
                0x00000000000224a0                __multadd
 .text.__s2b    0x0000000000022588      0x120 /opt/devkitpro/devkitA64/lib/gcc/aarch64-none-elf/8.3.0/../../../../aarch64-none-elf/lib/pic/libg.a(lib_a-mprec.o)
                0x0000000000022588                __s2b
 .text.__hi0bits
                0x00000000000226a8       0x5c /opt/devkitpro/devkitA64/lib/gcc/aarch64-none-elf/8.3.0/../../../../aarch64-none-elf/lib/pic/libg.a(lib_a-mprec.o)
                0x00000000000226a8                __hi0bits
 *fill*         0x0000000000022704        0x4 
 .text.__lo0bits
                0x0000000000022708       0xa0 /opt/devkitpro/devkitA64/lib/gcc/aarch64-none-elf/8.3.0/../../../../aarch64-none-elf/lib/pic/libg.a(lib_a-mprec.o)
                0x0000000000022708                __lo0bits
 .text.__i2b    0x00000000000227a8       0x2c /opt/devkitpro/devkitA64/lib/gcc/aarch64-none-elf/8.3.0/../../../../aarch64-none-elf/lib/pic/libg.a(lib_a-mprec.o)
                0x00000000000227a8                __i2b
 *fill*         0x00000000000227d4        0x4 
 .text.__multiply
                0x00000000000227d8      0x1c8 /opt/devkitpro/devkitA64/lib/gcc/aarch64-none-elf/8.3.0/../../../../aarch64-none-elf/lib/pic/libg.a(lib_a-mprec.o)
                0x00000000000227d8                __multiply
 .text.__pow5mult
                0x00000000000229a0      0x104 /opt/devkitpro/devkitA64/lib/gcc/aarch64-none-elf/8.3.0/../../../../aarch64-none-elf/lib/pic/libg.a(lib_a-mprec.o)
                0x00000000000229a0                __pow5mult
 *fill*         0x0000000000022aa4        0x4 
 .text.__lshift
                0x0000000000022aa8      0x134 /opt/devkitpro/devkitA64/lib/gcc/aarch64-none-elf/8.3.0/../../../../aarch64-none-elf/lib/pic/libg.a(lib_a-mprec.o)
                0x0000000000022aa8                __lshift
 *fill*         0x0000000000022bdc        0x4 
 .text.__mcmp   0x0000000000022be0       0x50 /opt/devkitpro/devkitA64/lib/gcc/aarch64-none-elf/8.3.0/../../../../aarch64-none-elf/lib/pic/libg.a(lib_a-mprec.o)
                0x0000000000022be0                __mcmp
 .text.__mdiff  0x0000000000022c30      0x14c /opt/devkitpro/devkitA64/lib/gcc/aarch64-none-elf/8.3.0/../../../../aarch64-none-elf/lib/pic/libg.a(lib_a-mprec.o)
                0x0000000000022c30                __mdiff
 *fill*         0x0000000000022d7c        0x4 
 .text.__ulp    0x0000000000022d80       0x68 /opt/devkitpro/devkitA64/lib/gcc/aarch64-none-elf/8.3.0/../../../../aarch64-none-elf/lib/pic/libg.a(lib_a-mprec.o)
                0x0000000000022d80                __ulp
 .text.__b2d    0x0000000000022de8      0x150 /opt/devkitpro/devkitA64/lib/gcc/aarch64-none-elf/8.3.0/../../../../aarch64-none-elf/lib/pic/libg.a(lib_a-mprec.o)
                0x0000000000022de8                __b2d
 .text.__d2b    0x0000000000022f38      0x138 /opt/devkitpro/devkitA64/lib/gcc/aarch64-none-elf/8.3.0/../../../../aarch64-none-elf/lib/pic/libg.a(lib_a-mprec.o)
                0x0000000000022f38                __d2b
 .text.__ratio  0x0000000000023070       0xa0 /opt/devkitpro/devkitA64/lib/gcc/aarch64-none-elf/8.3.0/../../../../aarch64-none-elf/lib/pic/libg.a(lib_a-mprec.o)
                0x0000000000023070                __ratio
 .text._mprec_log10
                0x0000000000023110       0x30 /opt/devkitpro/devkitA64/lib/gcc/aarch64-none-elf/8.3.0/../../../../aarch64-none-elf/lib/pic/libg.a(lib_a-mprec.o)
                0x0000000000023110                _mprec_log10
 .text.__copybits
                0x0000000000023140       0x68 /opt/devkitpro/devkitA64/lib/gcc/aarch64-none-elf/8.3.0/../../../../aarch64-none-elf/lib/pic/libg.a(lib_a-mprec.o)
                0x0000000000023140                __copybits
 .text.__any_on
                0x00000000000231a8       0x84 /opt/devkitpro/devkitA64/lib/gcc/aarch64-none-elf/8.3.0/../../../../aarch64-none-elf/lib/pic/libg.a(lib_a-mprec.o)
                0x00000000000231a8                __any_on
 *fill*         0x000000000002322c        0x4 
 .text._realloc_r
                0x0000000000023230      0x56c /opt/devkitpro/devkitA64/lib/gcc/aarch64-none-elf/8.3.0/../../../../aarch64-none-elf/lib/pic/libg.a(lib_a-reallocr.o)
                0x0000000000023230                _realloc_r
 *fill*         0x000000000002379c        0x4 
 .text.frexp    0x00000000000237a0       0x7c /opt/devkitpro/devkitA64/lib/gcc/aarch64-none-elf/8.3.0/../../../../aarch64-none-elf/lib/pic/libg.a(lib_a-s_frexp.o)
                0x00000000000237a0                frexp
 *fill*         0x000000000002381c        0x4 
 .text.strcasecmp
                0x0000000000023820       0x78 /opt/devkitpro/devkitA64/lib/gcc/aarch64-none-elf/8.3.0/../../../../aarch64-none-elf/lib/pic/libg.a(lib_a-strcasecmp.o)
                0x0000000000023820                strcasecmp
 .text.strcat   0x0000000000023898       0x74 /opt/devkitpro/devkitA64/lib/gcc/aarch64-none-elf/8.3.0/../../../../aarch64-none-elf/lib/pic/libg.a(lib_a-strcat.o)
                0x0000000000023898                strcat
 *fill*         0x000000000002390c       0x34 
 .text          0x0000000000023940       0xe4 /opt/devkitpro/devkitA64/lib/gcc/aarch64-none-elf/8.3.0/../../../../aarch64-none-elf/lib/pic/libg.a(lib_a-strcmp.o)
                0x0000000000023940                strcmp
 *fill*         0x0000000000023a24        0x4 
 .text.strlcpy  0x0000000000023a28       0x54 /opt/devkitpro/devkitA64/lib/gcc/aarch64-none-elf/8.3.0/../../../../aarch64-none-elf/lib/pic/libg.a(lib_a-strlcpy.o)
                0x0000000000023a28                strlcpy
 *fill*         0x0000000000023a7c        0x4 
 .text.strncasecmp
                0x0000000000023a80       0x8c /opt/devkitpro/devkitA64/lib/gcc/aarch64-none-elf/8.3.0/../../../../aarch64-none-elf/lib/pic/libg.a(lib_a-strncasecmp.o)
                0x0000000000023a80                strncasecmp
 .text.get_arg  0x0000000000023b0c      0x76c /opt/devkitpro/devkitA64/lib/gcc/aarch64-none-elf/8.3.0/../../../../aarch64-none-elf/lib/pic/libg.a(lib_a-svfiprintf.o)
 .text.__ssprint_r
                0x0000000000024278      0x1c0 /opt/devkitpro/devkitA64/lib/gcc/aarch64-none-elf/8.3.0/../../../../aarch64-none-elf/lib/pic/libg.a(lib_a-svfiprintf.o)
                0x0000000000024278                __ssprint_r
 .text._svfiprintf_r
                0x0000000000024438     0x28ec /opt/devkitpro/devkitA64/lib/gcc/aarch64-none-elf/8.3.0/../../../../aarch64-none-elf/lib/pic/libg.a(lib_a-svfiprintf.o)
                0x0000000000024438                _svfiprintf_r
 *fill*         0x0000000000026d24        0x4 
 .text._wcsnrtombs_l
                0x0000000000026d28      0x1dc /opt/devkitpro/devkitA64/lib/gcc/aarch64-none-elf/8.3.0/../../../../aarch64-none-elf/lib/pic/libg.a(lib_a-wcsnrtombs.o)
                0x0000000000026d28                _wcsnrtombs_l
 *fill*         0x0000000000026f04        0x4 
 .text._wcsnrtombs_r
                0x0000000000026f08       0x54 /opt/devkitpro/devkitA64/lib/gcc/aarch64-none-elf/8.3.0/../../../../aarch64-none-elf/lib/pic/libg.a(lib_a-wcsnrtombs.o)
                0x0000000000026f08                _wcsnrtombs_r
 *fill*         0x0000000000026f5c        0x4 
 .text.wcsnrtombs
                0x0000000000026f60       0x64 /opt/devkitpro/devkitA64/lib/gcc/aarch64-none-elf/8.3.0/../../../../aarch64-none-elf/lib/pic/libg.a(lib_a-wcsnrtombs.o)
                0x0000000000026f60                wcsnrtombs
 *fill*         0x0000000000026fc4        0x4 
 .text._wctomb_r
                0x0000000000026fc8       0x54 /opt/devkitpro/devkitA64/lib/gcc/aarch64-none-elf/8.3.0/../../../../aarch64-none-elf/lib/pic/libg.a(lib_a-wctomb_r.o)
                0x0000000000026fc8                _wctomb_r
 *fill*         0x000000000002701c        0x4 
 .text.__ascii_wctomb
                0x0000000000027020       0x34 /opt/devkitpro/devkitA64/lib/gcc/aarch64-none-elf/8.3.0/../../../../aarch64-none-elf/lib/pic/libg.a(lib_a-wctomb_r.o)
                0x0000000000027020                __ascii_wctomb
 *fill*         0x0000000000027054        0x4 
 .text.__utf8_wctomb
                0x0000000000027058       0xe4 /opt/devkitpro/devkitA64/lib/gcc/aarch64-none-elf/8.3.0/../../../../aarch64-none-elf/lib/pic/libg.a(lib_a-wctomb_r.o)
                0x0000000000027058                __utf8_wctomb
 *fill*         0x000000000002713c        0x4 
 .text.__sjis_wctomb
                0x0000000000027140       0x84 /opt/devkitpro/devkitA64/lib/gcc/aarch64-none-elf/8.3.0/../../../../aarch64-none-elf/lib/pic/libg.a(lib_a-wctomb_r.o)
                0x0000000000027140                __sjis_wctomb
 *fill*         0x00000000000271c4        0x4 
 .text.__eucjp_wctomb
                0x00000000000271c8       0xa8 /opt/devkitpro/devkitA64/lib/gcc/aarch64-none-elf/8.3.0/../../../../aarch64-none-elf/lib/pic/libg.a(lib_a-wctomb_r.o)
                0x00000000000271c8                __eucjp_wctomb
 .text.__jis_wctomb
                0x0000000000027270       0xbc /opt/devkitpro/devkitA64/lib/gcc/aarch64-none-elf/8.3.0/../../../../aarch64-none-elf/lib/pic/libg.a(lib_a-wctomb_r.o)
                0x0000000000027270                __jis_wctomb
 *fill*         0x000000000002732c        0x4 
 .text._calloc_r
                0x0000000000027330       0x94 /opt/devkitpro/devkitA64/lib/gcc/aarch64-none-elf/8.3.0/../../../../aarch64-none-elf/lib/pic/libg.a(lib_a-callocr.o)
                0x0000000000027330                _calloc_r
 *fill*         0x00000000000273c4       0x3c 
 .text          0x0000000000027400       0xac /opt/devkitpro/devkitA64/lib/gcc/aarch64-none-elf/8.3.0/../../../../aarch64-none-elf/lib/pic/libg.a(lib_a-memmove.o)
                0x0000000000027400                memmove
 *fill*         0x00000000000274ac        0x4 
 .text.null_write
                0x00000000000274b0        0x8 /opt/devkitpro/devkitA64/lib/gcc/aarch64-none-elf/8.3.0/../../../../aarch64-none-elf/lib/pic/libsysbase.a(iosupport.o)
 .text.setDefaultDevice
                0x00000000000274b8       0x18 /opt/devkitpro/devkitA64/lib/gcc/aarch64-none-elf/8.3.0/../../../../aarch64-none-elf/lib/pic/libsysbase.a(iosupport.o)
                0x00000000000274b8                setDefaultDevice
 .text.FindDevice
                0x00000000000274d0      0x108 /opt/devkitpro/devkitA64/lib/gcc/aarch64-none-elf/8.3.0/../../../../aarch64-none-elf/lib/pic/libsysbase.a(iosupport.o)
                0x00000000000274d0                FindDevice
 .text.RemoveDevice
                0x00000000000275d8       0x34 /opt/devkitpro/devkitA64/lib/gcc/aarch64-none-elf/8.3.0/../../../../aarch64-none-elf/lib/pic/libsysbase.a(iosupport.o)
                0x00000000000275d8                RemoveDevice
 *fill*         0x000000000002760c        0x4 
 .text.AddDevice
                0x0000000000027610       0xd8 /opt/devkitpro/devkitA64/lib/gcc/aarch64-none-elf/8.3.0/../../../../aarch64-none-elf/lib/pic/libsysbase.a(iosupport.o)
                0x0000000000027610                AddDevice
 .text.GetDeviceOpTab
                0x00000000000276e8       0x34 /opt/devkitpro/devkitA64/lib/gcc/aarch64-none-elf/8.3.0/../../../../aarch64-none-elf/lib/pic/libsysbase.a(iosupport.o)
                0x00000000000276e8                GetDeviceOpTab
 *fill*         0x000000000002771c        0x4 
 .text._sbrk_r  0x0000000000027720       0x78 /opt/devkitpro/devkitA64/lib/gcc/aarch64-none-elf/8.3.0/../../../../aarch64-none-elf/lib/pic/libsysbase.a(sbrk.o)
                0x0000000000027720                _sbrk_r
 .text._exit    0x0000000000027798       0x20 /opt/devkitpro/devkitA64/lib/gcc/aarch64-none-elf/8.3.0/../../../../aarch64-none-elf/lib/pic/libsysbase.a(_exit.o)
                0x0000000000027798                _exit
 .text._concatenate_path
                0x00000000000277b8      0x234 /opt/devkitpro/devkitA64/lib/gcc/aarch64-none-elf/8.3.0/../../../../aarch64-none-elf/lib/pic/libsysbase.a(chdir.o)
                0x00000000000277b8                _concatenate_path
 *fill*         0x00000000000279ec        0x4 
 .text.chdir    0x00000000000279f0      0x178 /opt/devkitpro/devkitA64/lib/gcc/aarch64-none-elf/8.3.0/../../../../aarch64-none-elf/lib/pic/libsysbase.a(chdir.o)
                0x00000000000279f0                chdir
 .text.getcwd   0x0000000000027b68       0xb8 /opt/devkitpro/devkitA64/lib/gcc/aarch64-none-elf/8.3.0/../../../../aarch64-none-elf/lib/pic/libsysbase.a(chdir.o)
                0x0000000000027b68                getcwd
 .text.timespec2nsec
                0x0000000000027c20       0x14 /opt/devkitpro/devkitA64/lib/gcc/aarch64-none-elf/8.3.0/../../../../aarch64-none-elf/lib/pic/libsysbase.a(locks.o)
                0x0000000000027c20                timespec2nsec
 *fill*         0x0000000000027c34        0x4 
 .text.abstimespec2nsec
                0x0000000000027c38       0xc4 /opt/devkitpro/devkitA64/lib/gcc/aarch64-none-elf/8.3.0/../../../../aarch64-none-elf/lib/pic/libsysbase.a(locks.o)
                0x0000000000027c38                abstimespec2nsec
 *fill*         0x0000000000027cfc        0x4 
 .text.__libc_lock_init
                0x0000000000027d00        0x8 /opt/devkitpro/devkitA64/lib/gcc/aarch64-none-elf/8.3.0/../../../../aarch64-none-elf/lib/pic/libsysbase.a(locks.o)
                0x0000000000027d00                __libc_lock_init
 .text.__libc_lock_acquire
                0x0000000000027d08       0x14 /opt/devkitpro/devkitA64/lib/gcc/aarch64-none-elf/8.3.0/../../../../aarch64-none-elf/lib/pic/libsysbase.a(locks.o)
                0x0000000000027d08                __libc_lock_acquire
 *fill*         0x0000000000027d1c        0x4 
 .text.__libc_lock_try_acquire
                0x0000000000027d20       0x18 /opt/devkitpro/devkitA64/lib/gcc/aarch64-none-elf/8.3.0/../../../../aarch64-none-elf/lib/pic/libsysbase.a(locks.o)
                0x0000000000027d20                __libc_lock_try_acquire
 .text.__libc_lock_release
                0x0000000000027d38       0x14 /opt/devkitpro/devkitA64/lib/gcc/aarch64-none-elf/8.3.0/../../../../aarch64-none-elf/lib/pic/libsysbase.a(locks.o)
                0x0000000000027d38                __libc_lock_release
 *fill*         0x0000000000027d4c        0x4 
 .text.__libc_lock_close
                0x0000000000027d50        0x4 /opt/devkitpro/devkitA64/lib/gcc/aarch64-none-elf/8.3.0/../../../../aarch64-none-elf/lib/pic/libsysbase.a(locks.o)
                0x0000000000027d50                __libc_lock_close
 *fill*         0x0000000000027d54        0x4 
 .text.__libc_lock_init_recursive
                0x0000000000027d58        0xc /opt/devkitpro/devkitA64/lib/gcc/aarch64-none-elf/8.3.0/../../../../aarch64-none-elf/lib/pic/libsysbase.a(locks.o)
                0x0000000000027d58                __libc_lock_init_recursive
 *fill*         0x0000000000027d64        0x4 
 .text.__libc_lock_acquire_recursive
                0x0000000000027d68       0x14 /opt/devkitpro/devkitA64/lib/gcc/aarch64-none-elf/8.3.0/../../../../aarch64-none-elf/lib/pic/libsysbase.a(locks.o)
                0x0000000000027d68                __libc_lock_acquire_recursive
 *fill*         0x0000000000027d7c        0x4 
 .text.__libc_lock_try_acquire_recursive
                0x0000000000027d80       0x18 /opt/devkitpro/devkitA64/lib/gcc/aarch64-none-elf/8.3.0/../../../../aarch64-none-elf/lib/pic/libsysbase.a(locks.o)
                0x0000000000027d80                __libc_lock_try_acquire_recursive
 .text.__libc_lock_release_recursive
                0x0000000000027d98       0x14 /opt/devkitpro/devkitA64/lib/gcc/aarch64-none-elf/8.3.0/../../../../aarch64-none-elf/lib/pic/libsysbase.a(locks.o)
                0x0000000000027d98                __libc_lock_release_recursive
 *fill*         0x0000000000027dac        0x4 
 .text.__libc_lock_close_recursive
                0x0000000000027db0        0x4 /opt/devkitpro/devkitA64/lib/gcc/aarch64-none-elf/8.3.0/../../../../aarch64-none-elf/lib/pic/libsysbase.a(locks.o)
                0x0000000000027db0                __libc_lock_close_recursive
 *fill*         0x0000000000027db4        0x4 
 .text.__libc_cond_init
                0x0000000000027db8        0xc /opt/devkitpro/devkitA64/lib/gcc/aarch64-none-elf/8.3.0/../../../../aarch64-none-elf/lib/pic/libsysbase.a(locks.o)
                0x0000000000027db8                __libc_cond_init
 *fill*         0x0000000000027dc4        0x4 
 .text.__libc_cond_signal
                0x0000000000027dc8       0x18 /opt/devkitpro/devkitA64/lib/gcc/aarch64-none-elf/8.3.0/../../../../aarch64-none-elf/lib/pic/libsysbase.a(locks.o)
                0x0000000000027dc8                __libc_cond_signal
 .text.__libc_cond_broadcast
                0x0000000000027de0       0x18 /opt/devkitpro/devkitA64/lib/gcc/aarch64-none-elf/8.3.0/../../../../aarch64-none-elf/lib/pic/libsysbase.a(locks.o)
                0x0000000000027de0                __libc_cond_broadcast
 .text.__libc_cond_wait
                0x0000000000027df8       0x18 /opt/devkitpro/devkitA64/lib/gcc/aarch64-none-elf/8.3.0/../../../../aarch64-none-elf/lib/pic/libsysbase.a(locks.o)
                0x0000000000027df8                __libc_cond_wait
 .text.__libc_cond_wait_recursive
                0x0000000000027e10       0x18 /opt/devkitpro/devkitA64/lib/gcc/aarch64-none-elf/8.3.0/../../../../aarch64-none-elf/lib/pic/libsysbase.a(locks.o)
                0x0000000000027e10                __libc_cond_wait_recursive
 .text.__getreent
                0x0000000000027e28       0x20 /opt/devkitpro/devkitA64/lib/gcc/aarch64-none-elf/8.3.0/../../../../aarch64-none-elf/lib/pic/libsysbase.a(getreent.o)
                0x0000000000027e28                __getreent
 .text.clock_gettime
                0x0000000000027e48       0x30 /opt/devkitpro/devkitA64/lib/gcc/aarch64-none-elf/8.3.0/../../../../aarch64-none-elf/lib/pic/libsysbase.a(clocks.o)
                0x0000000000027e48                clock_gettime
 .text.clock_settime
                0x0000000000027e78       0x30 /opt/devkitpro/devkitA64/lib/gcc/aarch64-none-elf/8.3.0/../../../../aarch64-none-elf/lib/pic/libsysbase.a(clocks.o)
                0x0000000000027e78                clock_settime
 .text.clock_getres
                0x0000000000027ea8       0x30 /opt/devkitpro/devkitA64/lib/gcc/aarch64-none-elf/8.3.0/../../../../aarch64-none-elf/lib/pic/libsysbase.a(clocks.o)
                0x0000000000027ea8                clock_getres
 .text.__trunctfdf2
                0x0000000000027ed8      0x348 /opt/devkitpro/devkitA64/lib/gcc/aarch64-none-elf/8.3.0/pic/libgcc.a(trunctfdf2.o)
                0x0000000000027ed8                __trunctfdf2
 .text.__sfp_handle_exceptions
                0x0000000000028220       0x70 /opt/devkitpro/devkitA64/lib/gcc/aarch64-none-elf/8.3.0/pic/libgcc.a(sfp-exceptions.o)
                0x0000000000028220                __sfp_handle_exceptions
                0x0000000000028290                . = ALIGN (0x8)

.fini           0x0000000000028290       0x38
 *(.fini)
 .fini          0x0000000000028290       0x18 /opt/devkitpro/devkitA64/lib/gcc/aarch64-none-elf/8.3.0/pic/crti.o
                0x0000000000028290                _fini
 .fini          0x00000000000282a8       0x1c /opt/devkitpro/devkitA64/lib/gcc/aarch64-none-elf/8.3.0/pic/crtn.o
                0x00000000000282c8                . = ALIGN (0x8)
 *fill*         0x00000000000282c4        0x4 
                0x0000000000029000                . = ALIGN (0x1000)

.rodata         0x0000000000029000      0xd30
 *(.rodata .rodata.* .gnu.linkonce.r.*)
 .rodata.str1.8
                0x0000000000029000      0x24e main.o
                                        0x251 (size before relaxing)
 *fill*         0x000000000002924e        0x2 
 .rodata.__libnx_init_time.str1.8
                0x0000000000029250        0x3 /home/jam/dev/ultimate/saltynx/arc_mod_installer/../libnx_min/nx//lib/libnx_min.a(newlib.o)
 *fill*         0x0000000000029253        0x5 
 .rodata._fsdevUnmountDeviceStruct.part.4.str1.8
                0x0000000000029258        0x2 /home/jam/dev/ultimate/saltynx/arc_mod_installer/../libnx_min/nx//lib/libnx_min.a(fs_dev.o)
 *fill*         0x000000000002925a        0x6 
 .rodata.error_table
                0x0000000000029260       0x20 /home/jam/dev/ultimate/saltynx/arc_mod_installer/../libnx_min/nx//lib/libnx_min.a(fs_dev.o)
 .rodata.fsdevMountSdmc.str1.8
                0x0000000000029280        0x5 /home/jam/dev/ultimate/saltynx/arc_mod_installer/../libnx_min/nx//lib/libnx_min.a(fs_dev.o)
 *fill*         0x0000000000029285        0x3 
 .rodata.CSWTCH.93
                0x0000000000029288       0x14 /home/jam/dev/ultimate/saltynx/arc_mod_installer/../libnx_min/nx//lib/libnx_min.a(applet.o)
 *fill*         0x000000000002929c        0x4 
 .rodata.appletInitialize.str1.8
                0x00000000000292a0       0x19 /home/jam/dev/ultimate/saltynx/arc_mod_installer/../libnx_min/nx//lib/libnx_min.a(applet.o)
 *fill*         0x00000000000292b9        0x7 
 .rodata.timeInitialize.str1.8
                0x00000000000292c0        0xf /home/jam/dev/ultimate/saltynx/arc_mod_installer/../libnx_min/nx//lib/libnx_min.a(time.o)
 *fill*         0x00000000000292cf        0x1 
 .rodata        0x00000000000292d0       0x24 /home/jam/dev/ultimate/saltynx/arc_mod_installer/../libnx_min/nx//lib/libnx_min.a(hid.o)
 *fill*         0x00000000000292f4        0x4 
 .rodata.hidInitialize.str1.8
                0x00000000000292f8        0x4 /home/jam/dev/ultimate/saltynx/arc_mod_installer/../libnx_min/nx//lib/libnx_min.a(hid.o)
 *fill*         0x00000000000292fc        0x4 
 .rodata.smInitialize.str1.8
                0x0000000000029300        0x4 /home/jam/dev/ultimate/saltynx/arc_mod_installer/../libnx_min/nx//lib/libnx_min.a(sm.o)
                                          0x9 (size before relaxing)
 *fill*         0x0000000000029304        0x4 
 .rodata.apmInitialize.str1.8
                0x0000000000029308        0x4 /home/jam/dev/ultimate/saltynx/arc_mod_installer/../libnx_min/nx//lib/libnx_min.a(apm.o)
 *fill*         0x000000000002930c        0x4 
 .rodata._fatalImpl.str1.8
                0x0000000000029310        0x8 /home/jam/dev/ultimate/saltynx/arc_mod_installer/../libnx_min/nx//lib/libnx_min.a(fatal.o)
 .rodata.setInitialize.str1.8
                0x0000000000029318        0x4 /home/jam/dev/ultimate/saltynx/arc_mod_installer/../libnx_min/nx//lib/libnx_min.a(set.o)
 *fill*         0x000000000002931c        0x4 
 .rodata.setsysInitialize.str1.8
                0x0000000000029320        0x8 /home/jam/dev/ultimate/saltynx/arc_mod_installer/../libnx_min/nx//lib/libnx_min.a(set.o)
 .rodata.fsInitialize.str1.8
                0x0000000000029328        0x8 /home/jam/dev/ultimate/saltynx/arc_mod_installer/../libnx_min/nx//lib/libnx_min.a(fs.o)
 .rodata._ctype_
                0x0000000000029330      0x101 /opt/devkitpro/devkitA64/lib/gcc/aarch64-none-elf/8.3.0/../../../../aarch64-none-elf/lib/pic/libg.a(lib_a-ctype_.o)
                0x0000000000029330                _ctype_
 *fill*         0x0000000000029431        0x3 
 .rodata.get_arg
                0x0000000000029434       0x92 /opt/devkitpro/devkitA64/lib/gcc/aarch64-none-elf/8.3.0/../../../../aarch64-none-elf/lib/pic/libg.a(lib_a-svfprintf.o)
 *fill*         0x00000000000294c6        0x2 
 .rodata._svfprintf_r
                0x00000000000294c8       0xb6 /opt/devkitpro/devkitA64/lib/gcc/aarch64-none-elf/8.3.0/../../../../aarch64-none-elf/lib/pic/libg.a(lib_a-svfprintf.o)
 .rodata._svfprintf_r.str1.1
                0x000000000002957e       0x3b /opt/devkitpro/devkitA64/lib/gcc/aarch64-none-elf/8.3.0/../../../../aarch64-none-elf/lib/pic/libg.a(lib_a-svfprintf.o)
 *fill*         0x00000000000295b9        0x7 
 .rodata.blanks.6590
                0x00000000000295c0       0x10 /opt/devkitpro/devkitA64/lib/gcc/aarch64-none-elf/8.3.0/../../../../aarch64-none-elf/lib/pic/libg.a(lib_a-svfprintf.o)
 .rodata.zeroes.6591
                0x00000000000295d0       0x10 /opt/devkitpro/devkitA64/lib/gcc/aarch64-none-elf/8.3.0/../../../../aarch64-none-elf/lib/pic/libg.a(lib_a-svfprintf.o)
 .rodata._dtoa_r.cst8
                0x00000000000295e0       0x18 /opt/devkitpro/devkitA64/lib/gcc/aarch64-none-elf/8.3.0/../../../../aarch64-none-elf/lib/pic/libg.a(lib_a-dtoa.o)
 .rodata._dtoa_r.str1.8
                0x00000000000295f8       0x1a /opt/devkitpro/devkitA64/lib/gcc/aarch64-none-elf/8.3.0/../../../../aarch64-none-elf/lib/pic/libg.a(lib_a-dtoa.o)
 *fill*         0x0000000000029612        0x2 
 .rodata.__loadlocale
                0x0000000000029614       0x6a /opt/devkitpro/devkitA64/lib/gcc/aarch64-none-elf/8.3.0/../../../../aarch64-none-elf/lib/pic/libg.a(lib_a-locale.o)
 *fill*         0x000000000002967e        0x2 
 .rodata.__get_locale_env.str1.8
                0x0000000000029680        0xd /opt/devkitpro/devkitA64/lib/gcc/aarch64-none-elf/8.3.0/../../../../aarch64-none-elf/lib/pic/libg.a(lib_a-locale.o)
 *fill*         0x000000000002968d        0x3 
 .rodata.__loadlocale.str1.8
                0x0000000000029690      0x113 /opt/devkitpro/devkitA64/lib/gcc/aarch64-none-elf/8.3.0/../../../../aarch64-none-elf/lib/pic/libg.a(lib_a-locale.o)
 *fill*         0x00000000000297a3        0x5 
 .rodata.currentlocale.str1.8
                0x00000000000297a8        0x2 /opt/devkitpro/devkitA64/lib/gcc/aarch64-none-elf/8.3.0/../../../../aarch64-none-elf/lib/pic/libg.a(lib_a-locale.o)
 *fill*         0x00000000000297aa        0x6 
 .rodata.str1.8
                0x00000000000297b0       0x5c /opt/devkitpro/devkitA64/lib/gcc/aarch64-none-elf/8.3.0/../../../../aarch64-none-elf/lib/pic/libg.a(lib_a-locale.o)
                                         0x64 (size before relaxing)
 *fill*         0x000000000002980c        0x4 
 .rodata.JIS_action_table
                0x0000000000029810       0x48 /opt/devkitpro/devkitA64/lib/gcc/aarch64-none-elf/8.3.0/../../../../aarch64-none-elf/lib/pic/libg.a(lib_a-mbtowc_r.o)
 .rodata.JIS_state_table
                0x0000000000029858       0x48 /opt/devkitpro/devkitA64/lib/gcc/aarch64-none-elf/8.3.0/../../../../aarch64-none-elf/lib/pic/libg.a(lib_a-mbtowc_r.o)
 .rodata.__mprec_bigtens
                0x00000000000298a0       0x28 /opt/devkitpro/devkitA64/lib/gcc/aarch64-none-elf/8.3.0/../../../../aarch64-none-elf/lib/pic/libg.a(lib_a-mprec.o)
                0x00000000000298a0                __mprec_bigtens
 .rodata.__mprec_tens
                0x00000000000298c8       0xc8 /opt/devkitpro/devkitA64/lib/gcc/aarch64-none-elf/8.3.0/../../../../aarch64-none-elf/lib/pic/libg.a(lib_a-mprec.o)
                0x00000000000298c8                __mprec_tens
 .rodata.__mprec_tinytens
                0x0000000000029990       0x28 /opt/devkitpro/devkitA64/lib/gcc/aarch64-none-elf/8.3.0/../../../../aarch64-none-elf/lib/pic/libg.a(lib_a-mprec.o)
                0x0000000000029990                __mprec_tinytens
 .rodata.p05.5339
                0x00000000000299b8        0xc /opt/devkitpro/devkitA64/lib/gcc/aarch64-none-elf/8.3.0/../../../../aarch64-none-elf/lib/pic/libg.a(lib_a-mprec.o)
 .rodata.get_arg
                0x00000000000299c4       0x92 /opt/devkitpro/devkitA64/lib/gcc/aarch64-none-elf/8.3.0/../../../../aarch64-none-elf/lib/pic/libg.a(lib_a-svfiprintf.o)
 *fill*         0x0000000000029a56        0x2 
 .rodata._svfiprintf_r
                0x0000000000029a58       0xb6 /opt/devkitpro/devkitA64/lib/gcc/aarch64-none-elf/8.3.0/../../../../aarch64-none-elf/lib/pic/libg.a(lib_a-svfiprintf.o)
 *fill*         0x0000000000029b0e        0x2 
 .rodata.__action_table
                0x0000000000029b10       0x6c /opt/devkitpro/devkitA64/lib/gcc/aarch64-none-elf/8.3.0/../../../../aarch64-none-elf/lib/pic/libg.a(lib_a-svfiprintf.o)
                0x0000000000029b10                __action_table
 *fill*         0x0000000000029b7c        0x4 
 .rodata.__chclass
                0x0000000000029b80      0x100 /opt/devkitpro/devkitA64/lib/gcc/aarch64-none-elf/8.3.0/../../../../aarch64-none-elf/lib/pic/libg.a(lib_a-svfiprintf.o)
                0x0000000000029b80                __chclass
 .rodata.__state_table
                0x0000000000029c80       0x6c /opt/devkitpro/devkitA64/lib/gcc/aarch64-none-elf/8.3.0/../../../../aarch64-none-elf/lib/pic/libg.a(lib_a-svfiprintf.o)
                0x0000000000029c80                __state_table
 .rodata._svfiprintf_r.str1.1
                0x0000000000029cec       0x29 /opt/devkitpro/devkitA64/lib/gcc/aarch64-none-elf/8.3.0/../../../../aarch64-none-elf/lib/pic/libg.a(lib_a-svfiprintf.o)
 *fill*         0x0000000000029cec        0x4 
 .rodata.blanks.6569
                0x0000000000029cf0       0x10 /opt/devkitpro/devkitA64/lib/gcc/aarch64-none-elf/8.3.0/../../../../aarch64-none-elf/lib/pic/libg.a(lib_a-svfiprintf.o)
 .rodata.zeroes.6570
                0x0000000000029d00       0x10 /opt/devkitpro/devkitA64/lib/gcc/aarch64-none-elf/8.3.0/../../../../aarch64-none-elf/lib/pic/libg.a(lib_a-svfiprintf.o)
 .rodata.AddDevice.str1.8
                0x0000000000029d10        0x8 /opt/devkitpro/devkitA64/lib/gcc/aarch64-none-elf/8.3.0/../../../../aarch64-none-elf/lib/pic/libsysbase.a(iosupport.o)
 .rodata.DIRECTORY_PARENT
                0x0000000000029d18        0x3 /opt/devkitpro/devkitA64/lib/gcc/aarch64-none-elf/8.3.0/../../../../aarch64-none-elf/lib/pic/libsysbase.a(chdir.o)
                0x0000000000029d18                DIRECTORY_PARENT
 *fill*         0x0000000000029d1b        0x5 
 .rodata.DIRECTORY_SEPARATOR
                0x0000000000029d20        0x2 /opt/devkitpro/devkitA64/lib/gcc/aarch64-none-elf/8.3.0/../../../../aarch64-none-elf/lib/pic/libsysbase.a(chdir.o)
                0x0000000000029d20                DIRECTORY_SEPARATOR
 *fill*         0x0000000000029d22        0x6 
 .rodata.DIRECTORY_THIS
                0x0000000000029d28        0x2 /opt/devkitpro/devkitA64/lib/gcc/aarch64-none-elf/8.3.0/../../../../aarch64-none-elf/lib/pic/libsysbase.a(chdir.o)
                0x0000000000029d28                DIRECTORY_THIS
                0x0000000000029d30                . = ALIGN (0x8)
 *fill*         0x0000000000029d2a        0x6 

.eh_frame_hdr   0x0000000000029d30        0x0
                0x0000000000029d30                __eh_frame_hdr_start = .
 *(.eh_frame_hdr)
 *(.eh_frame_entry .eh_frame_entry.*)
                0x0000000000029d30                __eh_frame_hdr_end = .

.eh_frame       0x0000000000029d30     0x70f8
 *(.eh_frame)
 .eh_frame      0x0000000000029d30       0x80 /opt/devkitpro/devkitA64/lib/gcc/aarch64-none-elf/8.3.0/pic/crtbegin.o
 .eh_frame      0x0000000000029db0       0xf8 main.o
                                        0x108 (size before relaxing)
 .eh_frame      0x0000000000029ea8       0x18 /home/jam/dev/ultimate/saltynx/arc_mod_installer/../libnx_min/nx//lib/libnx_min.a(dynamic.o)
                                         0x30 (size before relaxing)
 .eh_frame      0x0000000000029ec0       0x68 /home/jam/dev/ultimate/saltynx/arc_mod_installer/../libnx_min/nx//lib/libnx_min.a(init.o)
                                         0xb8 (size before relaxing)
 .eh_frame      0x0000000000029f28      0x1c0 /home/jam/dev/ultimate/saltynx/arc_mod_installer/../libnx_min/nx//lib/libnx_min.a(env.o)
                                        0x1d8 (size before relaxing)
 .eh_frame      0x000000000002a0e8      0x408 /home/jam/dev/ultimate/saltynx/arc_mod_installer/../libnx_min/nx//lib/libnx_min.a(newlib.o)
                                        0x420 (size before relaxing)
 .eh_frame      0x000000000002a4f0       0xa8 /home/jam/dev/ultimate/saltynx/arc_mod_installer/../libnx_min/nx//lib/libnx_min.a(argv.o)
                                         0xb8 (size before relaxing)
 .eh_frame      0x000000000002a598      0x800 /home/jam/dev/ultimate/saltynx/arc_mod_installer/../libnx_min/nx//lib/libnx_min.a(fs_dev.o)
                                        0x818 (size before relaxing)
 .eh_frame      0x000000000002ad98       0x18 /home/jam/dev/ultimate/saltynx/arc_mod_installer/../libnx_min/nx//lib/libnx_min.a(decode_utf8.o)
                                         0x28 (size before relaxing)
 .eh_frame      0x000000000002adb0      0x7d0 /home/jam/dev/ultimate/saltynx/arc_mod_installer/../libnx_min/nx//lib/libnx_min.a(svc.o)
                                        0x7e8 (size before relaxing)
 .eh_frame      0x000000000002b580       0x28 /home/jam/dev/ultimate/saltynx/arc_mod_installer/../libnx_min/nx//lib/libnx_min.a(exception.o)
                                         0x40 (size before relaxing)
 .eh_frame      0x000000000002b5a8       0x18 /home/jam/dev/ultimate/saltynx/arc_mod_installer/../libnx_min/nx//lib/libnx_min.a(readtp.o)
                                         0x28 (size before relaxing)
 .eh_frame      0x000000000002b5c0       0xb0 /home/jam/dev/ultimate/saltynx/arc_mod_installer/../libnx_min/nx//lib/libnx_min.a(mutex.o)
                                         0xc0 (size before relaxing)
 .eh_frame      0x000000000002b670      0x108 /home/jam/dev/ultimate/saltynx/arc_mod_installer/../libnx_min/nx//lib/libnx_min.a(virtmem.o)
                                        0x120 (size before relaxing)
 .eh_frame      0x000000000002b778       0x30 /home/jam/dev/ultimate/saltynx/arc_mod_installer/../libnx_min/nx//lib/libnx_min.a(condvar.o)
                                         0x48 (size before relaxing)
 .eh_frame      0x000000000002b7a8      0x1b8 /home/jam/dev/ultimate/saltynx/arc_mod_installer/../libnx_min/nx//lib/libnx_min.a(thread.o)
                                        0x1c8 (size before relaxing)
 .eh_frame      0x000000000002b960     0x1448 /home/jam/dev/ultimate/saltynx/arc_mod_installer/../libnx_min/nx//lib/libnx_min.a(applet.o)
                                       0x1458 (size before relaxing)
 .eh_frame      0x000000000002cda8      0x180 /home/jam/dev/ultimate/saltynx/arc_mod_installer/../libnx_min/nx//lib/libnx_min.a(time.o)
                                        0x198 (size before relaxing)
 .eh_frame      0x000000000002cf28      0xbe0 /home/jam/dev/ultimate/saltynx/arc_mod_installer/../libnx_min/nx//lib/libnx_min.a(hid.o)
                                        0xbf0 (size before relaxing)
 .eh_frame      0x000000000002db08      0x1d8 /home/jam/dev/ultimate/saltynx/arc_mod_installer/../libnx_min/nx//lib/libnx_min.a(sm.o)
                                        0x1f0 (size before relaxing)
 .eh_frame      0x000000000002dce0      0x110 /home/jam/dev/ultimate/saltynx/arc_mod_installer/../libnx_min/nx//lib/libnx_min.a(apm.o)
                                        0x128 (size before relaxing)
 .eh_frame      0x000000000002ddf0       0x70 /home/jam/dev/ultimate/saltynx/arc_mod_installer/../libnx_min/nx//lib/libnx_min.a(fatal.o)
                                         0x88 (size before relaxing)
 .eh_frame      0x000000000002de60      0x540 /home/jam/dev/ultimate/saltynx/arc_mod_installer/../libnx_min/nx//lib/libnx_min.a(set.o)
                                        0x550 (size before relaxing)
 .eh_frame      0x000000000002e3a0      0xed0 /home/jam/dev/ultimate/saltynx/arc_mod_installer/../libnx_min/nx//lib/libnx_min.a(fs.o)
                                        0xee0 (size before relaxing)
 .eh_frame      0x000000000002f270       0x28 /home/jam/dev/ultimate/saltynx/arc_mod_installer/../libnx_min/nx//lib/libnx_min.a(hosversion.o)
                                         0x40 (size before relaxing)
 .eh_frame      0x000000000002f298       0xc8 /home/jam/dev/ultimate/saltynx/arc_mod_installer/../libnx_min/nx//lib/libnx_min.a(detect.o)
                                         0xd8 (size before relaxing)
 .eh_frame      0x000000000002f360       0xb8 /home/jam/dev/ultimate/saltynx/arc_mod_installer/../libnx_min/nx//lib/libnx_min.a(shmem.o)
                                         0xc8 (size before relaxing)
 .eh_frame      0x000000000002f418       0xb0 /home/jam/dev/ultimate/saltynx/arc_mod_installer/../libnx_min/nx//lib/libnx_min.a(wait.o)
                                         0xc8 (size before relaxing)
 .eh_frame      0x000000000002f4c8       0xb0 /home/jam/dev/ultimate/saltynx/arc_mod_installer/../libnx_min/nx//lib/libnx_min.a(rwlock.o)
                                         0xc0 (size before relaxing)
 .eh_frame      0x000000000002f578       0xf0 /home/jam/dev/ultimate/saltynx/arc_mod_installer/../libnx_min/nx//lib/libnx_min.a(tmem.o)
                                        0x108 (size before relaxing)
 .eh_frame      0x000000000002f668       0xb0 /home/jam/dev/ultimate/saltynx/arc_mod_installer/../libnx_min/nx//lib/libnx_min.a(event.o)
                                         0xc0 (size before relaxing)
 .eh_frame      0x000000000002f718       0x68 /opt/devkitpro/devkitA64/lib/gcc/aarch64-none-elf/8.3.0/../../../../aarch64-none-elf/lib/pic/libg.a(lib_a-bsearch.o)
                                         0x78 (size before relaxing)
 .eh_frame      0x000000000002f780       0x18 /opt/devkitpro/devkitA64/lib/gcc/aarch64-none-elf/8.3.0/../../../../aarch64-none-elf/lib/pic/libg.a(lib_a-ctype_.o)
                                         0x28 (size before relaxing)
 .eh_frame      0x000000000002f798       0x20 /opt/devkitpro/devkitA64/lib/gcc/aarch64-none-elf/8.3.0/../../../../aarch64-none-elf/lib/pic/libg.a(lib_a-errno.o)
                                         0x38 (size before relaxing)
 .eh_frame      0x000000000002f7b8       0x20 /opt/devkitpro/devkitA64/lib/gcc/aarch64-none-elf/8.3.0/../../../../aarch64-none-elf/lib/pic/libg.a(lib_a-exit.o)
                                         0x30 (size before relaxing)
 .eh_frame      0x000000000002f7d8       0x28 /opt/devkitpro/devkitA64/lib/gcc/aarch64-none-elf/8.3.0/../../../../aarch64-none-elf/lib/pic/libg.a(lib_a-fini.o)
                                         0x38 (size before relaxing)
 .eh_frame      0x000000000002f800       0x28 /opt/devkitpro/devkitA64/lib/gcc/aarch64-none-elf/8.3.0/../../../../aarch64-none-elf/lib/pic/libg.a(lib_a-init.o)
                                         0x40 (size before relaxing)
 .eh_frame      0x000000000002f828       0x28 /opt/devkitpro/devkitA64/lib/gcc/aarch64-none-elf/8.3.0/../../../../aarch64-none-elf/lib/pic/libg.a(lib_a-malign.o)
                                         0x38 (size before relaxing)
 .eh_frame      0x000000000002f850       0x50 /opt/devkitpro/devkitA64/lib/gcc/aarch64-none-elf/8.3.0/../../../../aarch64-none-elf/lib/pic/libg.a(lib_a-malignr.o)
                                         0x68 (size before relaxing)
 .eh_frame      0x000000000002f8a0       0x40 /opt/devkitpro/devkitA64/lib/gcc/aarch64-none-elf/8.3.0/../../../../aarch64-none-elf/lib/pic/libg.a(lib_a-malloc.o)
                                         0x58 (size before relaxing)
 .eh_frame      0x000000000002f8e0       0xd0 /opt/devkitpro/devkitA64/lib/gcc/aarch64-none-elf/8.3.0/../../../../aarch64-none-elf/lib/pic/libg.a(lib_a-mallocr.o)
                                         0xe0 (size before relaxing)
 .eh_frame      0x000000000002f9b0       0x28 /opt/devkitpro/devkitA64/lib/gcc/aarch64-none-elf/8.3.0/../../../../aarch64-none-elf/lib/pic/libg.a(lib_a-mlock.o)
                                         0x40 (size before relaxing)
 .eh_frame      0x000000000002f9d8       0x48 /opt/devkitpro/devkitA64/lib/gcc/aarch64-none-elf/8.3.0/../../../../aarch64-none-elf/lib/pic/libg.a(lib_a-setenv.o)
                                         0x58 (size before relaxing)
 .eh_frame      0x000000000002fa20       0xb0 /opt/devkitpro/devkitA64/lib/gcc/aarch64-none-elf/8.3.0/../../../../aarch64-none-elf/lib/pic/libg.a(lib_a-setenv_r.o)
                                         0xc8 (size before relaxing)
 .eh_frame      0x000000000002fad0       0x68 /opt/devkitpro/devkitA64/lib/gcc/aarch64-none-elf/8.3.0/../../../../aarch64-none-elf/lib/pic/libg.a(lib_a-snprintf.o)
                                         0x80 (size before relaxing)
 .eh_frame      0x000000000002fb38       0x18 /opt/devkitpro/devkitA64/lib/gcc/aarch64-none-elf/8.3.0/../../../../aarch64-none-elf/lib/pic/libg.a(lib_a-strncat.o)
                                         0x28 (size before relaxing)
 .eh_frame      0x000000000002fb50       0x18 /opt/devkitpro/devkitA64/lib/gcc/aarch64-none-elf/8.3.0/../../../../aarch64-none-elf/lib/pic/libg.a(lib_a-strncpy.o)
                                         0x28 (size before relaxing)
 .eh_frame      0x000000000002fb68       0x80 /opt/devkitpro/devkitA64/lib/gcc/aarch64-none-elf/8.3.0/../../../../aarch64-none-elf/lib/pic/libg.a(lib_a-strtol.o)
                                         0x98 (size before relaxing)
 .eh_frame      0x000000000002fbe8       0xb8 /opt/devkitpro/devkitA64/lib/gcc/aarch64-none-elf/8.3.0/../../../../aarch64-none-elf/lib/pic/libg.a(lib_a-svfprintf.o)
                                         0xc8 (size before relaxing)
 .eh_frame      0x000000000002fca0       0x70 /opt/devkitpro/devkitA64/lib/gcc/aarch64-none-elf/8.3.0/../../../../aarch64-none-elf/lib/pic/libg.a(lib_a-wcrtomb.o)
                                         0x80 (size before relaxing)
 .eh_frame      0x000000000002fd10       0x38 /opt/devkitpro/devkitA64/lib/gcc/aarch64-none-elf/8.3.0/../../../../aarch64-none-elf/lib/pic/libg.a(lib_a-wcsrtombs.o)
                                         0x50 (size before relaxing)
 .eh_frame      0x000000000002fd48       0x40 /opt/devkitpro/devkitA64/lib/gcc/aarch64-none-elf/8.3.0/../../../../aarch64-none-elf/lib/pic/libg.a(lib_a-__call_atexit.o)
                                         0x58 (size before relaxing)
 .eh_frame      0x000000000002fd88       0x98 /opt/devkitpro/devkitA64/lib/gcc/aarch64-none-elf/8.3.0/../../../../aarch64-none-elf/lib/pic/libg.a(lib_a-dtoa.o)
                                         0xb0 (size before relaxing)
 .eh_frame      0x000000000002fe20       0x28 /opt/devkitpro/devkitA64/lib/gcc/aarch64-none-elf/8.3.0/../../../../aarch64-none-elf/lib/pic/libg.a(lib_a-envlock.o)
                                         0x40 (size before relaxing)
 .eh_frame      0x000000000002fe48       0x80 /opt/devkitpro/devkitA64/lib/gcc/aarch64-none-elf/8.3.0/../../../../aarch64-none-elf/lib/pic/libg.a(lib_a-freer.o)
                                         0x98 (size before relaxing)
 .eh_frame      0x000000000002fec8       0x68 /opt/devkitpro/devkitA64/lib/gcc/aarch64-none-elf/8.3.0/../../../../aarch64-none-elf/lib/pic/libg.a(lib_a-getenv_r.o)
                                         0x78 (size before relaxing)
 .eh_frame      0x000000000002ff30       0x58 /opt/devkitpro/devkitA64/lib/gcc/aarch64-none-elf/8.3.0/../../../../aarch64-none-elf/lib/pic/libg.a(lib_a-localeconv.o)
                                         0x68 (size before relaxing)
 .eh_frame      0x000000000002ff88      0x200 /opt/devkitpro/devkitA64/lib/gcc/aarch64-none-elf/8.3.0/../../../../aarch64-none-elf/lib/pic/libg.a(lib_a-locale.o)
                                        0x210 (size before relaxing)
 .eh_frame      0x0000000000030188       0xf8 /opt/devkitpro/devkitA64/lib/gcc/aarch64-none-elf/8.3.0/../../../../aarch64-none-elf/lib/pic/libg.a(lib_a-mbtowc_r.o)
                                        0x110 (size before relaxing)
 .eh_frame      0x0000000000030280      0x2f8 /opt/devkitpro/devkitA64/lib/gcc/aarch64-none-elf/8.3.0/../../../../aarch64-none-elf/lib/pic/libg.a(lib_a-mprec.o)
                                        0x310 (size before relaxing)
 .eh_frame      0x0000000000030578       0xf0 /opt/devkitpro/devkitA64/lib/gcc/aarch64-none-elf/8.3.0/../../../../aarch64-none-elf/lib/pic/libg.a(lib_a-reallocr.o)
                                        0x108 (size before relaxing)
 .eh_frame      0x0000000000030668       0x18 /opt/devkitpro/devkitA64/lib/gcc/aarch64-none-elf/8.3.0/../../../../aarch64-none-elf/lib/pic/libg.a(lib_a-s_frexp.o)
                                         0x28 (size before relaxing)
 .eh_frame      0x0000000000030680       0x18 /opt/devkitpro/devkitA64/lib/gcc/aarch64-none-elf/8.3.0/../../../../aarch64-none-elf/lib/pic/libg.a(lib_a-strcasecmp.o)
                                         0x28 (size before relaxing)
 .eh_frame      0x0000000000030698       0x28 /opt/devkitpro/devkitA64/lib/gcc/aarch64-none-elf/8.3.0/../../../../aarch64-none-elf/lib/pic/libg.a(lib_a-strcat.o)
                                         0x38 (size before relaxing)
 .eh_frame      0x00000000000306c0       0x18 /opt/devkitpro/devkitA64/lib/gcc/aarch64-none-elf/8.3.0/../../../../aarch64-none-elf/lib/pic/libg.a(lib_a-strlcpy.o)
                                         0x28 (size before relaxing)
 .eh_frame      0x00000000000306d8       0x18 /opt/devkitpro/devkitA64/lib/gcc/aarch64-none-elf/8.3.0/../../../../aarch64-none-elf/lib/pic/libg.a(lib_a-strncasecmp.o)
                                         0x28 (size before relaxing)
 .eh_frame      0x00000000000306f0       0xe0 /opt/devkitpro/devkitA64/lib/gcc/aarch64-none-elf/8.3.0/../../../../aarch64-none-elf/lib/pic/libg.a(lib_a-svfiprintf.o)
                                         0xf8 (size before relaxing)
 .eh_frame      0x00000000000307d0      0x128 /opt/devkitpro/devkitA64/lib/gcc/aarch64-none-elf/8.3.0/../../../../aarch64-none-elf/lib/pic/libg.a(lib_a-wcsnrtombs.o)
                                        0x138 (size before relaxing)
 .eh_frame      0x00000000000308f8       0x88 /opt/devkitpro/devkitA64/lib/gcc/aarch64-none-elf/8.3.0/../../../../aarch64-none-elf/lib/pic/libg.a(lib_a-wctomb_r.o)
                                         0xa0 (size before relaxing)
 .eh_frame      0x0000000000030980       0x30 /opt/devkitpro/devkitA64/lib/gcc/aarch64-none-elf/8.3.0/../../../../aarch64-none-elf/lib/pic/libg.a(lib_a-callocr.o)
                                         0x40 (size before relaxing)
 .eh_frame      0x00000000000309b0      0x118 /opt/devkitpro/devkitA64/lib/gcc/aarch64-none-elf/8.3.0/../../../../aarch64-none-elf/lib/pic/libsysbase.a(iosupport.o)
                                        0x130 (size before relaxing)
 .eh_frame      0x0000000000030ac8       0x18 /opt/devkitpro/devkitA64/lib/gcc/aarch64-none-elf/8.3.0/../../../../aarch64-none-elf/lib/pic/libsysbase.a(sbrk.o)
                                         0x28 (size before relaxing)
 .eh_frame      0x0000000000030ae0       0x20 /opt/devkitpro/devkitA64/lib/gcc/aarch64-none-elf/8.3.0/../../../../aarch64-none-elf/lib/pic/libsysbase.a(_exit.o)
                                         0x38 (size before relaxing)
 .eh_frame      0x0000000000030b00      0x110 /opt/devkitpro/devkitA64/lib/gcc/aarch64-none-elf/8.3.0/../../../../aarch64-none-elf/lib/pic/libsysbase.a(chdir.o)
                                        0x128 (size before relaxing)
 .eh_frame      0x0000000000030c10      0x168 /opt/devkitpro/devkitA64/lib/gcc/aarch64-none-elf/8.3.0/../../../../aarch64-none-elf/lib/pic/libsysbase.a(locks.o)
                                        0x178 (size before relaxing)
 .eh_frame      0x0000000000030d78       0x18 /opt/devkitpro/devkitA64/lib/gcc/aarch64-none-elf/8.3.0/../../../../aarch64-none-elf/lib/pic/libsysbase.a(getreent.o)
                                         0x28 (size before relaxing)
 .eh_frame      0x0000000000030d90       0x60 /opt/devkitpro/devkitA64/lib/gcc/aarch64-none-elf/8.3.0/../../../../aarch64-none-elf/lib/pic/libsysbase.a(clocks.o)
                                         0x78 (size before relaxing)
 .eh_frame      0x0000000000030df0       0x20 /opt/devkitpro/devkitA64/lib/gcc/aarch64-none-elf/8.3.0/pic/libgcc.a(trunctfdf2.o)
                                         0x38 (size before relaxing)
 .eh_frame      0x0000000000030e10       0x14 /opt/devkitpro/devkitA64/lib/gcc/aarch64-none-elf/8.3.0/pic/libgcc.a(sfp-exceptions.o)
                                         0x28 (size before relaxing)
 .eh_frame      0x0000000000030e24        0x4 /opt/devkitpro/devkitA64/lib/gcc/aarch64-none-elf/8.3.0/pic/crtend.o
 *(.eh_frame.*)

.gcc_except_table
 *(.gcc_except_table .gcc_except_table.*)

.gnu_extab
 *(.gnu_extab*)

.dynamic        0x0000000000030e28      0x1a0
 *(.dynamic)
 .dynamic       0x0000000000030e28      0x1a0 /opt/devkitpro/devkitA64/lib/gcc/aarch64-none-elf/8.3.0/pic/crti.o
                0x0000000000030e28                _DYNAMIC

.dynsym         0x0000000000030fc8     0x40b0
 *(.dynsym)
 .dynsym        0x0000000000030fc8     0x40b0 /opt/devkitpro/devkitA64/lib/gcc/aarch64-none-elf/8.3.0/pic/crti.o

.dynstr         0x0000000000035078     0x310d
 *(.dynstr)
 .dynstr        0x0000000000035078     0x310d /opt/devkitpro/devkitA64/lib/gcc/aarch64-none-elf/8.3.0/pic/crti.o

.rela.dyn       0x0000000000038188     0x29a0
 *(.rela.*)
 .rela.got      0x0000000000038188      0x948 /opt/devkitpro/devkitA64/lib/gcc/aarch64-none-elf/8.3.0/pic/crti.o
 .rela.plt      0x000000000003aa68       0xc0 /opt/devkitpro/devkitA64/lib/gcc/aarch64-none-elf/8.3.0/pic/crti.o
 .rela.bss      0x0000000000038b90        0x0 /opt/devkitpro/devkitA64/lib/gcc/aarch64-none-elf/8.3.0/pic/crti.o
 .rela.data.rel.ro
                0x0000000000038b90        0x0 /opt/devkitpro/devkitA64/lib/gcc/aarch64-none-elf/8.3.0/pic/crti.o
 .rela.init_array
                0x0000000000038ad0       0x18 /opt/devkitpro/devkitA64/lib/gcc/aarch64-none-elf/8.3.0/pic/crti.o
 .rela.fini_array
                0x0000000000038ae8       0x18 /opt/devkitpro/devkitA64/lib/gcc/aarch64-none-elf/8.3.0/pic/crti.o
 .rela.ifunc    0x0000000000038bc0        0x0 /opt/devkitpro/devkitA64/lib/gcc/aarch64-none-elf/8.3.0/pic/crti.o
 .rela.data.rel.ro.local.fsdev_devoptab
                0x0000000000038b00      0x210 /opt/devkitpro/devkitA64/lib/gcc/aarch64-none-elf/8.3.0/pic/crti.o
 .rela.data.rel.local._impure_ptr
                0x0000000000038d10       0x18 /opt/devkitpro/devkitA64/lib/gcc/aarch64-none-elf/8.3.0/pic/crti.o
 .rela.data.rel.local.impure_data
                0x0000000000038d28       0x48 /opt/devkitpro/devkitA64/lib/gcc/aarch64-none-elf/8.3.0/pic/crti.o
 .rela.data.rel.ro.local._global_impure_ptr
                0x0000000000038d70       0x18 /opt/devkitpro/devkitA64/lib/gcc/aarch64-none-elf/8.3.0/pic/crti.o
 .rela.data.rel.__malloc_av_
                0x0000000000038d88     0x1800 /opt/devkitpro/devkitA64/lib/gcc/aarch64-none-elf/8.3.0/pic/crti.o
 .rela.data.rel.local.environ
                0x000000000003a588       0x18 /opt/devkitpro/devkitA64/lib/gcc/aarch64-none-elf/8.3.0/pic/crti.o
 .rela.data.rel.__global_locale
                0x000000000003a5a0      0x138 /opt/devkitpro/devkitA64/lib/gcc/aarch64-none-elf/8.3.0/pic/crti.o
 .rela.data.rel.ro.__C_locale
                0x000000000003a6d8      0x138 /opt/devkitpro/devkitA64/lib/gcc/aarch64-none-elf/8.3.0/pic/crti.o
 .rela.data.rel.ro.local.categories
                0x000000000003a810       0xa8 /opt/devkitpro/devkitA64/lib/gcc/aarch64-none-elf/8.3.0/pic/crti.o
 .rela.data.rel.devoptab_list
                0x000000000003a8b8      0x180 /opt/devkitpro/devkitA64/lib/gcc/aarch64-none-elf/8.3.0/pic/crti.o
 .rela.data.rel.ro.local.dotab_stdnull
                0x000000000003aa38       0x30 /opt/devkitpro/devkitA64/lib/gcc/aarch64-none-elf/8.3.0/pic/crti.o

.interp         0x000000000003ab28        0xd
 *(.interp)
 .interp        0x000000000003ab28        0xd /opt/devkitpro/devkitA64/lib/gcc/aarch64-none-elf/8.3.0/pic/crti.o

.hash           0x000000000003ab38     0x12f4
 *(.hash)
 .hash          0x000000000003ab38     0x12f4 /opt/devkitpro/devkitA64/lib/gcc/aarch64-none-elf/8.3.0/pic/crti.o

.gnu.hash
 *(.gnu.hash)

.gnu.version    0x000000000003be2c        0x0
 *(.gnu.version)
 .gnu.version   0x000000000003be2c        0x0 /opt/devkitpro/devkitA64/lib/gcc/aarch64-none-elf/8.3.0/pic/crti.o

.gnu.version_d  0x000000000003be30        0x0
 *(.gnu.version_d)
 .gnu.version_d
                0x000000000003be30        0x0 /opt/devkitpro/devkitA64/lib/gcc/aarch64-none-elf/8.3.0/pic/crti.o

.gnu.version_r  0x000000000003be30        0x0
 *(.gnu.version_r)
 .gnu.version_r
                0x000000000003be30        0x0 /opt/devkitpro/devkitA64/lib/gcc/aarch64-none-elf/8.3.0/pic/crti.o

.note.gnu.build-id
                0x000000000003be2c       0x24
 *(.note.gnu.build-id)
 .note.gnu.build-id
                0x000000000003be2c       0x24 /opt/devkitpro/devkitA64/lib/gcc/aarch64-none-elf/8.3.0/pic/crti.o
                0x000000000003c000                . = ALIGN (0x1000)

.eh_frame
 *(.eh_frame)
 *(.eh_frame.*)

.gcc_except_table
 *(.gcc_except_table .gcc_except_table.*)

.gnu_extab
 *(.gnu_extab*)

.exception_ranges
 *(.exception_ranges .exception_ranges*)

.tdata          0x000000000003c000        0x0
                0x000000000003c000                __tdata_lma = .
 *(.tdata .tdata.* .gnu.linkonce.td.*)
                0x000000000003c000                . = ALIGN (0x8)
                0x000000000003c000                __tdata_lma_end = .

.tbss           0x000000000003c000     0x4408
 *(.tbss .tbss.* .gnu.linkonce.tb.*)
 .tbss.__fixedpath
                0x000000000003c000      0x401 /home/jam/dev/ultimate/saltynx/arc_mod_installer/../libnx_min/nx//lib/libnx_min.a(fs_dev.o)
 *fill*         0x000000000003c401        0x3 
 .tbss.fsdev_last_result
                0x000000000003c404        0x4 /home/jam/dev/ultimate/saltynx/arc_mod_installer/../libnx_min/nx//lib/libnx_min.a(fs_dev.o)
 .tbss.tmp_buffer.7389
                0x000000000003c408     0x2000 /home/jam/dev/ultimate/saltynx/arc_mod_installer/../libnx_min/nx//lib/libnx_min.a(fs_dev.o)
 .tbss.tmp_buffer.7413
                0x000000000003e408     0x2000 /home/jam/dev/ultimate/saltynx/arc_mod_installer/../libnx_min/nx//lib/libnx_min.a(fs_dev.o)
 *(.tcommon)
                0x0000000000040408                . = ALIGN (0x8)

.preinit_array  0x000000000003c000        0x0
                0x000000000003c000                PROVIDE (__preinit_array_start = .)
 *(.preinit_array)
                0x000000000003c000                PROVIDE (__preinit_array_end = .)

.init_array     0x000000000003c000        0x8
                0x000000000003c000                PROVIDE (__init_array_start = .)
 *(SORT_BY_NAME(.init_array.*))
 *(.init_array)
 .init_array    0x000000000003c000        0x8 /opt/devkitpro/devkitA64/lib/gcc/aarch64-none-elf/8.3.0/pic/crtbegin.o
                0x000000000003c008                PROVIDE (__init_array_end = .)

.fini_array     0x000000000003c008        0x8
                0x000000000003c008                PROVIDE (__fini_array_start = .)
 *(.fini_array)
 .fini_array    0x000000000003c008        0x8 /opt/devkitpro/devkitA64/lib/gcc/aarch64-none-elf/8.3.0/pic/crtbegin.o
 *(SORT_BY_NAME(.fini_array.*))
                0x000000000003c010                PROVIDE (__fini_array_end = .)

.ctors
 *crtbegin.o(.ctors)
 *(EXCLUDE_FILE(*crtend.o) .ctors)
 *(SORT_BY_NAME(.ctors.*))
 *(.ctors)

.dtors
 *crtbegin.o(.dtors)
 *(EXCLUDE_FILE(*crtend.o) .dtors)
 *(SORT_BY_NAME(.dtors.*))
 *(.dtors)
                0x000000000003c010                __got_start__ = .

.got            0x000000000003c010      0x320
 *(.got)
 .got           0x000000000003c010      0x320 /opt/devkitpro/devkitA64/lib/gcc/aarch64-none-elf/8.3.0/pic/crti.o
                0x000000000003c010                _GLOBAL_OFFSET_TABLE_
 *(.igot)

.got.plt        0x000000000003c330       0x58
 *(.got.plt)
 .got.plt       0x000000000003c330       0x58 /opt/devkitpro/devkitA64/lib/gcc/aarch64-none-elf/8.3.0/pic/crti.o
 *(.igot.plt)
                0x000000000003c388                __got_end__ = .

.data           0x000000000003c388     0x1db8
 *(.data .data.* .gnu.linkonce.d.*)
 .data.rel.ro   0x000000000003c388        0x0 /opt/devkitpro/devkitA64/lib/gcc/aarch64-none-elf/8.3.0/pic/crti.o
 .data          0x000000000003c388        0x4 main.o
                0x000000000003c388                __nx_applet_type
 *fill*         0x000000000003c38c        0x4 
 .data.__nx_exception_stack_size
                0x000000000003c390        0x8 /home/jam/dev/ultimate/saltynx/arc_mod_installer/../libnx_min/nx//lib/libnx_min.a(init.o)
                0x000000000003c390                __nx_exception_stack_size
 .data.__cwd    0x000000000003c398      0x401 /home/jam/dev/ultimate/saltynx/arc_mod_installer/../libnx_min/nx//lib/libnx_min.a(fs_dev.o)
 *fill*         0x000000000003c799        0x3 
 .data.fsdev_fsdevice_cwd
                0x000000000003c79c        0x4 /home/jam/dev/ultimate/saltynx/arc_mod_installer/../libnx_min/nx//lib/libnx_min.a(fs_dev.o)
 .data.fsdev_fsdevice_default
                0x000000000003c7a0        0x4 /home/jam/dev/ultimate/saltynx/arc_mod_installer/../libnx_min/nx//lib/libnx_min.a(fs_dev.o)
 *fill*         0x000000000003c7a4        0x4 
 .data.rel.ro.local.fsdev_devoptab
                0x000000000003c7a8       0xe0 /home/jam/dev/ultimate/saltynx/arc_mod_installer/../libnx_min/nx//lib/libnx_min.a(fs_dev.o)
 .data.__nx_applet_auto_notifyrunning
                0x000000000003c888        0x1 /home/jam/dev/ultimate/saltynx/arc_mod_installer/../libnx_min/nx//lib/libnx_min.a(applet.o)
                0x000000000003c888                __nx_applet_auto_notifyrunning
 *fill*         0x000000000003c889        0x7 
 .data.rel.local._impure_ptr
                0x000000000003c890        0x8 /opt/devkitpro/devkitA64/lib/gcc/aarch64-none-elf/8.3.0/../../../../aarch64-none-elf/lib/pic/libg.a(lib_a-impure.o)
                0x000000000003c890                _impure_ptr
 .data.rel.local.impure_data
                0x000000000003c898      0x768 /opt/devkitpro/devkitA64/lib/gcc/aarch64-none-elf/8.3.0/../../../../aarch64-none-elf/lib/pic/libg.a(lib_a-impure.o)
 .data.rel.ro.local._global_impure_ptr
                0x000000000003d000        0x8 /opt/devkitpro/devkitA64/lib/gcc/aarch64-none-elf/8.3.0/../../../../aarch64-none-elf/lib/pic/libg.a(lib_a-impure.o)
                0x000000000003d000                _global_impure_ptr
 .data.__malloc_sbrk_base
                0x000000000003d008        0x8 /opt/devkitpro/devkitA64/lib/gcc/aarch64-none-elf/8.3.0/../../../../aarch64-none-elf/lib/pic/libg.a(lib_a-mallocr.o)
                0x000000000003d008                __malloc_sbrk_base
 .data.__malloc_trim_threshold
                0x000000000003d010        0x8 /opt/devkitpro/devkitA64/lib/gcc/aarch64-none-elf/8.3.0/../../../../aarch64-none-elf/lib/pic/libg.a(lib_a-mallocr.o)
                0x000000000003d010                __malloc_trim_threshold
 .data.rel.__malloc_av_
                0x000000000003d018      0x810 /opt/devkitpro/devkitA64/lib/gcc/aarch64-none-elf/8.3.0/../../../../aarch64-none-elf/lib/pic/libg.a(lib_a-mallocr.o)
                0x000000000003d018                __malloc_av_
 .data.rel.local.environ
                0x000000000003d828        0x8 /opt/devkitpro/devkitA64/lib/gcc/aarch64-none-elf/8.3.0/../../../../aarch64-none-elf/lib/pic/libg.a(lib_a-environ.o)
                0x000000000003d828                environ
 .data.__default_locale
                0x000000000003d830       0x20 /opt/devkitpro/devkitA64/lib/gcc/aarch64-none-elf/8.3.0/../../../../aarch64-none-elf/lib/pic/libg.a(lib_a-locale.o)
                0x000000000003d830                __default_locale
 .data.rel.__global_locale
                0x000000000003d850      0x1a8 /opt/devkitpro/devkitA64/lib/gcc/aarch64-none-elf/8.3.0/../../../../aarch64-none-elf/lib/pic/libg.a(lib_a-locale.o)
                0x000000000003d850                __global_locale
 .data.rel.ro.__C_locale
                0x000000000003d9f8      0x1a8 /opt/devkitpro/devkitA64/lib/gcc/aarch64-none-elf/8.3.0/../../../../aarch64-none-elf/lib/pic/libg.a(lib_a-locale.o)
                0x000000000003d9f8                __C_locale
 .data.rel.ro.local.categories
                0x000000000003dba0       0x38 /opt/devkitpro/devkitA64/lib/gcc/aarch64-none-elf/8.3.0/../../../../aarch64-none-elf/lib/pic/libg.a(lib_a-locale.o)
 .data.defaultDevice
                0x000000000003dbd8        0x4 /opt/devkitpro/devkitA64/lib/gcc/aarch64-none-elf/8.3.0/../../../../aarch64-none-elf/lib/pic/libsysbase.a(iosupport.o)
 *fill*         0x000000000003dbdc        0x4 
 .data.rel.devoptab_list
                0x000000000003dbe0       0x80 /opt/devkitpro/devkitA64/lib/gcc/aarch64-none-elf/8.3.0/../../../../aarch64-none-elf/lib/pic/libsysbase.a(iosupport.o)
                0x000000000003dbe0                devoptab_list
 .data.rel.ro.local.dotab_stdnull
                0x000000000003dc60       0xe0 /opt/devkitpro/devkitA64/lib/gcc/aarch64-none-elf/8.3.0/../../../../aarch64-none-elf/lib/pic/libsysbase.a(iosupport.o)
                0x000000000003dc60                dotab_stdnull
 .data._current_working_directory
                0x000000000003dd40      0x400 /opt/devkitpro/devkitA64/lib/gcc/aarch64-none-elf/8.3.0/../../../../aarch64-none-elf/lib/pic/libsysbase.a(chdir.o)
                0x000000000003e140                __bss_start__ = .

.tm_clone_table
                0x000000000003e140        0x0
 .tm_clone_table
                0x000000000003e140        0x0 /opt/devkitpro/devkitA64/lib/gcc/aarch64-none-elf/8.3.0/pic/crtbegin.o
 .tm_clone_table
                0x000000000003e140        0x0 /opt/devkitpro/devkitA64/lib/gcc/aarch64-none-elf/8.3.0/pic/crtend.o

.bss            0x000000000003e140    0x157c0
 *(.dynbss)
 .dynbss        0x000000000003e140        0x0 /opt/devkitpro/devkitA64/lib/gcc/aarch64-none-elf/8.3.0/pic/crti.o
 *(.bss .bss.* .gnu.linkonce.b.*)
 .bss.completed.7870
                0x000000000003e140        0x1 /opt/devkitpro/devkitA64/lib/gcc/aarch64-none-elf/8.3.0/pic/crtbegin.o
 *fill*         0x000000000003e141        0x7 
 .bss.object.7875
                0x000000000003e148       0x30 /opt/devkitpro/devkitA64/lib/gcc/aarch64-none-elf/8.3.0/pic/crtbegin.o
 .bss           0x000000000003e178     0x8000 main.o
 .bss.__nx_exception_ignoredebug
                0x0000000000046178        0x4 /home/jam/dev/ultimate/saltynx/arc_mod_installer/../libnx_min/nx//lib/libnx_min.a(init.o)
                0x0000000000046178                __nx_exception_ignoredebug
 *fill*         0x000000000004617c        0x4 
 .bss.__nx_exception_stack
                0x0000000000046180      0x400 /home/jam/dev/ultimate/saltynx/arc_mod_installer/../libnx_min/nx//lib/libnx_min.a(init.o)
                0x0000000000046180                __nx_exception_stack
 .bss.__nx_heap_size
                0x0000000000046580        0x8 /home/jam/dev/ultimate/saltynx/arc_mod_installer/../libnx_min/nx//lib/libnx_min.a(init.o)
                0x0000000000046580                __nx_heap_size
 .bss.g_hasRandomSeed
                0x0000000000046588        0x1 /home/jam/dev/ultimate/saltynx/arc_mod_installer/../libnx_min/nx//lib/libnx_min.a(env.o)
 .bss.g_isNso   0x0000000000046589        0x1 /home/jam/dev/ultimate/saltynx/arc_mod_installer/../libnx_min/nx//lib/libnx_min.a(env.o)
 *fill*         0x000000000004658a        0x2 
 .bss.g_lastLoadResult
                0x000000000004658c        0x4 /home/jam/dev/ultimate/saltynx/arc_mod_installer/../libnx_min/nx//lib/libnx_min.a(env.o)
 .bss.g_loaderRetAddr
                0x0000000000046590        0x8 /home/jam/dev/ultimate/saltynx/arc_mod_installer/../libnx_min/nx//lib/libnx_min.a(env.o)
 .bss.g_mainThreadHandle
                0x0000000000046598        0x4 /home/jam/dev/ultimate/saltynx/arc_mod_installer/../libnx_min/nx//lib/libnx_min.a(env.o)
 *fill*         0x000000000004659c        0x4 
 .bss.g_nextLoadArgv
                0x00000000000465a0        0x8 /home/jam/dev/ultimate/saltynx/arc_mod_installer/../libnx_min/nx//lib/libnx_min.a(env.o)
 .bss.g_nextLoadPath
                0x00000000000465a8        0x8 /home/jam/dev/ultimate/saltynx/arc_mod_installer/../libnx_min/nx//lib/libnx_min.a(env.o)
 .bss.g_overrideArgv
                0x00000000000465b0        0x8 /home/jam/dev/ultimate/saltynx/arc_mod_installer/../libnx_min/nx//lib/libnx_min.a(env.o)
 .bss.g_overrideHeapAddr
                0x00000000000465b8        0x8 /home/jam/dev/ultimate/saltynx/arc_mod_installer/../libnx_min/nx//lib/libnx_min.a(env.o)
 .bss.g_overrideHeapSize
                0x00000000000465c0        0x8 /home/jam/dev/ultimate/saltynx/arc_mod_installer/../libnx_min/nx//lib/libnx_min.a(env.o)
 .bss.g_processHandle
                0x00000000000465c8        0x4 /home/jam/dev/ultimate/saltynx/arc_mod_installer/../libnx_min/nx//lib/libnx_min.a(env.o)
 *fill*         0x00000000000465cc        0x4 
 .bss.g_randomSeed
                0x00000000000465d0       0x10 /home/jam/dev/ultimate/saltynx/arc_mod_installer/../libnx_min/nx//lib/libnx_min.a(env.o)
 .bss.g_syscallHints
                0x00000000000465e0       0x10 /home/jam/dev/ultimate/saltynx/arc_mod_installer/../libnx_min/nx//lib/libnx_min.a(env.o)
 .bss.__bootticks
                0x00000000000465f0        0x8 /home/jam/dev/ultimate/saltynx/arc_mod_installer/../libnx_min/nx//lib/libnx_min.a(newlib.o)
 .bss.__boottime
                0x00000000000465f8        0x8 /home/jam/dev/ultimate/saltynx/arc_mod_installer/../libnx_min/nx//lib/libnx_min.a(newlib.o)
 .bss.__nx_time_type
                0x0000000000046600        0x4 /home/jam/dev/ultimate/saltynx/arc_mod_installer/../libnx_min/nx//lib/libnx_min.a(newlib.o)
                0x0000000000046600                __nx_time_type
 *fill*         0x0000000000046604        0x4 
 .bss.g_argv_empty
                0x0000000000046608        0x8 /home/jam/dev/ultimate/saltynx/arc_mod_installer/../libnx_min/nx//lib/libnx_min.a(argv.o)
 .bss.fsdev_fsdevices
                0x0000000000046610     0x2300 /home/jam/dev/ultimate/saltynx/arc_mod_installer/../libnx_min/nx//lib/libnx_min.a(fs_dev.o)
 .bss.fsdev_initialised
                0x0000000000048910        0x1 /home/jam/dev/ultimate/saltynx/arc_mod_installer/../libnx_min/nx//lib/libnx_min.a(fs_dev.o)
 *fill*         0x0000000000048911        0x7 
 .bss.g_AddressSpace
                0x0000000000048918       0x10 /home/jam/dev/ultimate/saltynx/arc_mod_installer/../libnx_min/nx//lib/libnx_min.a(virtmem.o)
 .bss.g_CurrentAddr
                0x0000000000048928        0x8 /home/jam/dev/ultimate/saltynx/arc_mod_installer/../libnx_min/nx//lib/libnx_min.a(virtmem.o)
 .bss.g_CurrentMapAddr
                0x0000000000048930        0x8 /home/jam/dev/ultimate/saltynx/arc_mod_installer/../libnx_min/nx//lib/libnx_min.a(virtmem.o)
 .bss.g_Region  0x0000000000048938       0x30 /home/jam/dev/ultimate/saltynx/arc_mod_installer/../libnx_min/nx//lib/libnx_min.a(virtmem.o)
 .bss.g_VirtMemMutex
                0x0000000000048968        0x4 /home/jam/dev/ultimate/saltynx/arc_mod_installer/../libnx_min/nx//lib/libnx_min.a(virtmem.o)
 *fill*         0x000000000004896c        0x4 
 .bss.g_threadList
                0x0000000000048970        0x8 /home/jam/dev/ultimate/saltynx/arc_mod_installer/../libnx_min/nx//lib/libnx_min.a(thread.o)
 .bss.g_threadMutex
                0x0000000000048978        0x4 /home/jam/dev/ultimate/saltynx/arc_mod_installer/../libnx_min/nx//lib/libnx_min.a(thread.o)
 *fill*         0x000000000004897c        0x4 
 .bss.g_tlsDestructors
                0x0000000000048980       0xd0 /home/jam/dev/ultimate/saltynx/arc_mod_installer/../libnx_min/nx//lib/libnx_min.a(thread.o)
 .bss.g_tlsUsageMask
                0x0000000000048a50        0x8 /home/jam/dev/ultimate/saltynx/arc_mod_installer/../libnx_min/nx//lib/libnx_min.a(thread.o)
 .bss.__nx_applet_AppletAttribute
                0x0000000000048a58       0x80 /home/jam/dev/ultimate/saltynx/arc_mod_installer/../libnx_min/nx//lib/libnx_min.a(applet.o)
                0x0000000000048a58                __nx_applet_AppletAttribute
 .bss.__nx_applet_PerformanceConfiguration
                0x0000000000048ad8        0x8 /home/jam/dev/ultimate/saltynx/arc_mod_installer/../libnx_min/nx//lib/libnx_min.a(applet.o)
                0x0000000000048ad8                __nx_applet_PerformanceConfiguration
 .bss.__nx_applet_exit_mode
                0x0000000000048ae0        0x4 /home/jam/dev/ultimate/saltynx/arc_mod_installer/../libnx_min/nx//lib/libnx_min.a(applet.o)
                0x0000000000048ae0                __nx_applet_exit_mode
 .bss.g_appletCpuBoostMode
                0x0000000000048ae4        0x4 /home/jam/dev/ultimate/saltynx/arc_mod_installer/../libnx_min/nx//lib/libnx_min.a(applet.o)
 .bss.g_appletExitProcessFlag
                0x0000000000048ae8        0x1 /home/jam/dev/ultimate/saltynx/arc_mod_installer/../libnx_min/nx//lib/libnx_min.a(applet.o)
 *fill*         0x0000000000048ae9        0x7 
 .bss.g_appletFirstHook
                0x0000000000048af0       0x18 /home/jam/dev/ultimate/saltynx/arc_mod_installer/../libnx_min/nx//lib/libnx_min.a(applet.o)
 .bss.g_appletFocusState
                0x0000000000048b08        0x1 /home/jam/dev/ultimate/saltynx/arc_mod_installer/../libnx_min/nx//lib/libnx_min.a(applet.o)
 *fill*         0x0000000000048b09        0x7 
 .bss.g_appletIApplicationCreator
                0x0000000000048b10        0xc /home/jam/dev/ultimate/saltynx/arc_mod_installer/../libnx_min/nx//lib/libnx_min.a(applet.o)
 *fill*         0x0000000000048b1c        0x4 
 .bss.g_appletIAudioController
                0x0000000000048b20        0xc /home/jam/dev/ultimate/saltynx/arc_mod_installer/../libnx_min/nx//lib/libnx_min.a(applet.o)
 *fill*         0x0000000000048b2c        0x4 
 .bss.g_appletICommonStateGetter
                0x0000000000048b30        0xc /home/jam/dev/ultimate/saltynx/arc_mod_installer/../libnx_min/nx//lib/libnx_min.a(applet.o)
 *fill*         0x0000000000048b3c        0x4 
 .bss.g_appletIDebugFunctions
                0x0000000000048b40        0xc /home/jam/dev/ultimate/saltynx/arc_mod_installer/../libnx_min/nx//lib/libnx_min.a(applet.o)
 *fill*         0x0000000000048b4c        0x4 
 .bss.g_appletIDisplayController
                0x0000000000048b50        0xc /home/jam/dev/ultimate/saltynx/arc_mod_installer/../libnx_min/nx//lib/libnx_min.a(applet.o)
 *fill*         0x0000000000048b5c        0x4 
 .bss.g_appletIFunctions
                0x0000000000048b60        0xc /home/jam/dev/ultimate/saltynx/arc_mod_installer/../libnx_min/nx//lib/libnx_min.a(applet.o)
 *fill*         0x0000000000048b6c        0x4 
 .bss.g_appletIGlobalStateController
                0x0000000000048b70        0xc /home/jam/dev/ultimate/saltynx/arc_mod_installer/../libnx_min/nx//lib/libnx_min.a(applet.o)
 *fill*         0x0000000000048b7c        0x4 
 .bss.g_appletILibraryAppletCreator
                0x0000000000048b80        0xc /home/jam/dev/ultimate/saltynx/arc_mod_installer/../libnx_min/nx//lib/libnx_min.a(applet.o)
 *fill*         0x0000000000048b8c        0x4 
 .bss.g_appletILibraryAppletSelfAccessor
                0x0000000000048b90        0xc /home/jam/dev/ultimate/saltynx/arc_mod_installer/../libnx_min/nx//lib/libnx_min.a(applet.o)
 *fill*         0x0000000000048b9c        0x4 
 .bss.g_appletIProcessWindingController
                0x0000000000048ba0        0xc /home/jam/dev/ultimate/saltynx/arc_mod_installer/../libnx_min/nx//lib/libnx_min.a(applet.o)
 *fill*         0x0000000000048bac        0x4 
 .bss.g_appletISelfController
                0x0000000000048bb0        0xc /home/jam/dev/ultimate/saltynx/arc_mod_installer/../libnx_min/nx//lib/libnx_min.a(applet.o)
 *fill*         0x0000000000048bbc        0x4 
 .bss.g_appletIWindowController
                0x0000000000048bc0        0xc /home/jam/dev/ultimate/saltynx/arc_mod_installer/../libnx_min/nx//lib/libnx_min.a(applet.o)
 *fill*         0x0000000000048bcc        0x4 
 .bss.g_appletLibraryAppletLaunchableEvent
                0x0000000000048bd0        0xc /home/jam/dev/ultimate/saltynx/arc_mod_installer/../libnx_min/nx//lib/libnx_min.a(applet.o)
 *fill*         0x0000000000048bdc        0x4 
 .bss.g_appletMessageEvent
                0x0000000000048be0        0xc /home/jam/dev/ultimate/saltynx/arc_mod_installer/../libnx_min/nx//lib/libnx_min.a(applet.o)
 .bss.g_appletNotifiedRunning
                0x0000000000048bec        0x1 /home/jam/dev/ultimate/saltynx/arc_mod_installer/../libnx_min/nx//lib/libnx_min.a(applet.o)
 .bss.g_appletOperationMode
                0x0000000000048bed        0x1 /home/jam/dev/ultimate/saltynx/arc_mod_installer/../libnx_min/nx//lib/libnx_min.a(applet.o)
 *fill*         0x0000000000048bee        0x2 
 .bss.g_appletPerformanceMode
                0x0000000000048bf0        0x4 /home/jam/dev/ultimate/saltynx/arc_mod_installer/../libnx_min/nx//lib/libnx_min.a(applet.o)
 *fill*         0x0000000000048bf4        0x4 
 .bss.g_appletProxySession
                0x0000000000048bf8        0xc /home/jam/dev/ultimate/saltynx/arc_mod_installer/../libnx_min/nx//lib/libnx_min.a(applet.o)
 .bss.g_appletRecordingInitialized
                0x0000000000048c04        0x4 /home/jam/dev/ultimate/saltynx/arc_mod_installer/../libnx_min/nx//lib/libnx_min.a(applet.o)
 .bss.g_appletRecordingTmem
                0x0000000000048c08       0x28 /home/jam/dev/ultimate/saltynx/arc_mod_installer/../libnx_min/nx//lib/libnx_min.a(applet.o)
 .bss.g_appletResourceUserId
                0x0000000000048c30        0x8 /home/jam/dev/ultimate/saltynx/arc_mod_installer/../libnx_min/nx//lib/libnx_min.a(applet.o)
 .bss.g_appletSrv
                0x0000000000048c38        0xc /home/jam/dev/ultimate/saltynx/arc_mod_installer/../libnx_min/nx//lib/libnx_min.a(applet.o)
 .bss.g_appletThemeColorType
                0x0000000000048c44        0x4 /home/jam/dev/ultimate/saltynx/arc_mod_installer/../libnx_min/nx//lib/libnx_min.a(applet.o)
 .bss.g_refCnt  0x0000000000048c48        0x8 /home/jam/dev/ultimate/saltynx/arc_mod_installer/../libnx_min/nx//lib/libnx_min.a(applet.o)
 .bss.g_refCnt  0x0000000000048c50        0x8 /home/jam/dev/ultimate/saltynx/arc_mod_installer/../libnx_min/nx//lib/libnx_min.a(time.o)
 .bss.g_timeLocalSystemClock
                0x0000000000048c58        0xc /home/jam/dev/ultimate/saltynx/arc_mod_installer/../libnx_min/nx//lib/libnx_min.a(time.o)
 *fill*         0x0000000000048c64        0x4 
 .bss.g_timeNetworkSystemClock
                0x0000000000048c68        0xc /home/jam/dev/ultimate/saltynx/arc_mod_installer/../libnx_min/nx//lib/libnx_min.a(time.o)
 *fill*         0x0000000000048c74        0x4 
 .bss.g_timeSrv
                0x0000000000048c78        0xc /home/jam/dev/ultimate/saltynx/arc_mod_installer/../libnx_min/nx//lib/libnx_min.a(time.o)
 *fill*         0x0000000000048c84        0x4 
 .bss.g_timeTimeZoneService
                0x0000000000048c88        0xc /home/jam/dev/ultimate/saltynx/arc_mod_installer/../libnx_min/nx//lib/libnx_min.a(time.o)
 *fill*         0x0000000000048c94        0x4 
 .bss.g_timeUserSystemClock
                0x0000000000048c98        0xc /home/jam/dev/ultimate/saltynx/arc_mod_installer/../libnx_min/nx//lib/libnx_min.a(time.o)
 *fill*         0x0000000000048ca4        0x4 
 .bss.g_controllerDown
                0x0000000000048ca8       0x50 /home/jam/dev/ultimate/saltynx/arc_mod_installer/../libnx_min/nx//lib/libnx_min.a(hid.o)
 .bss.g_controllerEntries
                0x0000000000048cf8      0x1e0 /home/jam/dev/ultimate/saltynx/arc_mod_installer/../libnx_min/nx//lib/libnx_min.a(hid.o)
 .bss.g_controllerHeaders
                0x0000000000048ed8      0x190 /home/jam/dev/ultimate/saltynx/arc_mod_installer/../libnx_min/nx//lib/libnx_min.a(hid.o)
 .bss.g_controllerHeld
                0x0000000000049068       0x50 /home/jam/dev/ultimate/saltynx/arc_mod_installer/../libnx_min/nx//lib/libnx_min.a(hid.o)
 .bss.g_controllerLayout
                0x00000000000490b8       0x28 /home/jam/dev/ultimate/saltynx/arc_mod_installer/../libnx_min/nx//lib/libnx_min.a(hid.o)
 .bss.g_controllerMisc
                0x00000000000490e0      0x500 /home/jam/dev/ultimate/saltynx/arc_mod_installer/../libnx_min/nx//lib/libnx_min.a(hid.o)
 .bss.g_controllerOld
                0x00000000000495e0       0x50 /home/jam/dev/ultimate/saltynx/arc_mod_installer/../libnx_min/nx//lib/libnx_min.a(hid.o)
 .bss.g_controllerP1AutoID
                0x0000000000049630        0x4 /home/jam/dev/ultimate/saltynx/arc_mod_installer/../libnx_min/nx//lib/libnx_min.a(hid.o)
 *fill*         0x0000000000049634        0x4 
 .bss.g_controllerTimestamps
                0x0000000000049638       0x50 /home/jam/dev/ultimate/saltynx/arc_mod_installer/../libnx_min/nx//lib/libnx_min.a(hid.o)
 .bss.g_controllerUp
                0x0000000000049688       0x50 /home/jam/dev/ultimate/saltynx/arc_mod_installer/../libnx_min/nx//lib/libnx_min.a(hid.o)
 .bss.g_hidIAppletResource
                0x00000000000496d8        0xc /home/jam/dev/ultimate/saltynx/arc_mod_installer/../libnx_min/nx//lib/libnx_min.a(hid.o)
 *fill*         0x00000000000496e4        0x4 
 .bss.g_hidLock
                0x00000000000496e8       0x10 /home/jam/dev/ultimate/saltynx/arc_mod_installer/../libnx_min/nx//lib/libnx_min.a(hid.o)
 .bss.g_hidSharedmem
                0x00000000000496f8       0x20 /home/jam/dev/ultimate/saltynx/arc_mod_installer/../libnx_min/nx//lib/libnx_min.a(hid.o)
 .bss.g_hidSrv  0x0000000000049718        0xc /home/jam/dev/ultimate/saltynx/arc_mod_installer/../libnx_min/nx//lib/libnx_min.a(hid.o)
 *fill*         0x0000000000049724        0x4 
 .bss.g_keyboardDown
                0x0000000000049728       0x20 /home/jam/dev/ultimate/saltynx/arc_mod_installer/../libnx_min/nx//lib/libnx_min.a(hid.o)
 .bss.g_keyboardEntry
                0x0000000000049748       0x38 /home/jam/dev/ultimate/saltynx/arc_mod_installer/../libnx_min/nx//lib/libnx_min.a(hid.o)
 .bss.g_keyboardHeld
                0x0000000000049780       0x20 /home/jam/dev/ultimate/saltynx/arc_mod_installer/../libnx_min/nx//lib/libnx_min.a(hid.o)
 .bss.g_keyboardModDown
                0x00000000000497a0        0x8 /home/jam/dev/ultimate/saltynx/arc_mod_installer/../libnx_min/nx//lib/libnx_min.a(hid.o)
 .bss.g_keyboardModHeld
                0x00000000000497a8        0x8 /home/jam/dev/ultimate/saltynx/arc_mod_installer/../libnx_min/nx//lib/libnx_min.a(hid.o)
 .bss.g_keyboardModOld
                0x00000000000497b0        0x8 /home/jam/dev/ultimate/saltynx/arc_mod_installer/../libnx_min/nx//lib/libnx_min.a(hid.o)
 .bss.g_keyboardModUp
                0x00000000000497b8        0x8 /home/jam/dev/ultimate/saltynx/arc_mod_installer/../libnx_min/nx//lib/libnx_min.a(hid.o)
 .bss.g_keyboardOld
                0x00000000000497c0       0x20 /home/jam/dev/ultimate/saltynx/arc_mod_installer/../libnx_min/nx//lib/libnx_min.a(hid.o)
 .bss.g_keyboardTimestamp
                0x00000000000497e0        0x8 /home/jam/dev/ultimate/saltynx/arc_mod_installer/../libnx_min/nx//lib/libnx_min.a(hid.o)
 .bss.g_keyboardUp
                0x00000000000497e8       0x20 /home/jam/dev/ultimate/saltynx/arc_mod_installer/../libnx_min/nx//lib/libnx_min.a(hid.o)
 .bss.g_mouse   0x0000000000049808      0x400 /home/jam/dev/ultimate/saltynx/arc_mod_installer/../libnx_min/nx//lib/libnx_min.a(hid.o)
 .bss.g_mouseDown
                0x0000000000049c08        0x8 /home/jam/dev/ultimate/saltynx/arc_mod_installer/../libnx_min/nx//lib/libnx_min.a(hid.o)
 .bss.g_mouseEntry
                0x0000000000049c10        0x8 /home/jam/dev/ultimate/saltynx/arc_mod_installer/../libnx_min/nx//lib/libnx_min.a(hid.o)
 .bss.g_mouseHeld
                0x0000000000049c18        0x8 /home/jam/dev/ultimate/saltynx/arc_mod_installer/../libnx_min/nx//lib/libnx_min.a(hid.o)
 .bss.g_mouseOld
                0x0000000000049c20        0x8 /home/jam/dev/ultimate/saltynx/arc_mod_installer/../libnx_min/nx//lib/libnx_min.a(hid.o)
 .bss.g_mouseTimestamp
                0x0000000000049c28        0x8 /home/jam/dev/ultimate/saltynx/arc_mod_installer/../libnx_min/nx//lib/libnx_min.a(hid.o)
 .bss.g_mouseUp
                0x0000000000049c30        0x8 /home/jam/dev/ultimate/saltynx/arc_mod_installer/../libnx_min/nx//lib/libnx_min.a(hid.o)
 .bss.g_refCnt  0x0000000000049c38        0x8 /home/jam/dev/ultimate/saltynx/arc_mod_installer/../libnx_min/nx//lib/libnx_min.a(hid.o)
 .bss.g_sevenSixAxisSensorBuffer
                0x0000000000049c40        0x8 /home/jam/dev/ultimate/saltynx/arc_mod_installer/../libnx_min/nx//lib/libnx_min.a(hid.o)
 .bss.g_sevenSixAxisSensorTmem0
                0x0000000000049c48       0x28 /home/jam/dev/ultimate/saltynx/arc_mod_installer/../libnx_min/nx//lib/libnx_min.a(hid.o)
 .bss.g_sevenSixAxisSensorTmem1
                0x0000000000049c70       0x28 /home/jam/dev/ultimate/saltynx/arc_mod_installer/../libnx_min/nx//lib/libnx_min.a(hid.o)
 .bss.g_sixaxisEnabled
                0x0000000000049c98        0xa /home/jam/dev/ultimate/saltynx/arc_mod_installer/../libnx_min/nx//lib/libnx_min.a(hid.o)
 *fill*         0x0000000000049ca2        0x6 
 .bss.g_sixaxisLayouts
                0x0000000000049ca8     0x4650 /home/jam/dev/ultimate/saltynx/arc_mod_installer/../libnx_min/nx//lib/libnx_min.a(hid.o)
 .bss.g_touchEntry
                0x000000000004e2f8      0x298 /home/jam/dev/ultimate/saltynx/arc_mod_installer/../libnx_min/nx//lib/libnx_min.a(hid.o)
 .bss.g_touchTimestamp
                0x000000000004e590        0x8 /home/jam/dev/ultimate/saltynx/arc_mod_installer/../libnx_min/nx//lib/libnx_min.a(hid.o)
 .bss.g_refCnt  0x000000000004e598        0x8 /home/jam/dev/ultimate/saltynx/arc_mod_installer/../libnx_min/nx//lib/libnx_min.a(sm.o)
 .bss.g_smOverrides
                0x000000000004e5a0      0x200 /home/jam/dev/ultimate/saltynx/arc_mod_installer/../libnx_min/nx//lib/libnx_min.a(sm.o)
 .bss.g_smOverridesNum
                0x000000000004e7a0        0x8 /home/jam/dev/ultimate/saltynx/arc_mod_installer/../libnx_min/nx//lib/libnx_min.a(sm.o)
 .bss.g_smSrv   0x000000000004e7a8        0xc /home/jam/dev/ultimate/saltynx/arc_mod_installer/../libnx_min/nx//lib/libnx_min.a(sm.o)
 *fill*         0x000000000004e7b4        0x4 
 .bss.g_apmISession
                0x000000000004e7b8        0xc /home/jam/dev/ultimate/saltynx/arc_mod_installer/../libnx_min/nx//lib/libnx_min.a(apm.o)
 *fill*         0x000000000004e7c4        0x4 
 .bss.g_apmSrv  0x000000000004e7c8        0xc /home/jam/dev/ultimate/saltynx/arc_mod_installer/../libnx_min/nx//lib/libnx_min.a(apm.o)
 *fill*         0x000000000004e7d4        0x4 
 .bss.g_refCnt  0x000000000004e7d8        0x8 /home/jam/dev/ultimate/saltynx/arc_mod_installer/../libnx_min/nx//lib/libnx_min.a(apm.o)
 .bss.g_refCnt  0x000000000004e7e0        0x8 /home/jam/dev/ultimate/saltynx/arc_mod_installer/../libnx_min/nx//lib/libnx_min.a(set.o)
 .bss.g_refCntSys
                0x000000000004e7e8        0x8 /home/jam/dev/ultimate/saltynx/arc_mod_installer/../libnx_min/nx//lib/libnx_min.a(set.o)
 .bss.g_setLanguageCodes
                0x000000000004e7f0      0x200 /home/jam/dev/ultimate/saltynx/arc_mod_installer/../libnx_min/nx//lib/libnx_min.a(set.o)
 .bss.g_setLanguageCodesInitialized
                0x000000000004e9f0        0x1 /home/jam/dev/ultimate/saltynx/arc_mod_installer/../libnx_min/nx//lib/libnx_min.a(set.o)
 *fill*         0x000000000004e9f1        0x3 
 .bss.g_setLanguageCodesTotal
                0x000000000004e9f4        0x4 /home/jam/dev/ultimate/saltynx/arc_mod_installer/../libnx_min/nx//lib/libnx_min.a(set.o)
 .bss.g_setSrv  0x000000000004e9f8        0xc /home/jam/dev/ultimate/saltynx/arc_mod_installer/../libnx_min/nx//lib/libnx_min.a(set.o)
 *fill*         0x000000000004ea04        0x4 
 .bss.g_setsysSrv
                0x000000000004ea08        0xc /home/jam/dev/ultimate/saltynx/arc_mod_installer/../libnx_min/nx//lib/libnx_min.a(set.o)
 *fill*         0x000000000004ea14        0x4 
 .bss.g_fsSrv   0x000000000004ea18        0xc /home/jam/dev/ultimate/saltynx/arc_mod_installer/../libnx_min/nx//lib/libnx_min.a(fs.o)
 *fill*         0x000000000004ea24        0x4 
 .bss.g_refCnt  0x000000000004ea28        0x8 /home/jam/dev/ultimate/saltynx/arc_mod_installer/../libnx_min/nx//lib/libnx_min.a(fs.o)
 .bss.g_hosVersion
                0x000000000004ea30        0x4 /home/jam/dev/ultimate/saltynx/arc_mod_installer/../libnx_min/nx//lib/libnx_min.a(hosversion.o)
 .bss.g_JitKernelPatchCached
                0x000000000004ea34        0x1 /home/jam/dev/ultimate/saltynx/arc_mod_installer/../libnx_min/nx//lib/libnx_min.a(detect.o)
 .bss.g_JitKernelPatchDetected
                0x000000000004ea35        0x1 /home/jam/dev/ultimate/saltynx/arc_mod_installer/../libnx_min/nx//lib/libnx_min.a(detect.o)
 *fill*         0x000000000004ea36        0x2 
 .bss.g_JitKernelPatchMutex
                0x000000000004ea38        0x4 /home/jam/dev/ultimate/saltynx/arc_mod_installer/../libnx_min/nx//lib/libnx_min.a(detect.o)
 .bss.g_Version
                0x000000000004ea3c        0x4 /home/jam/dev/ultimate/saltynx/arc_mod_installer/../libnx_min/nx//lib/libnx_min.a(detect.o)
 .bss.g_VersionCached
                0x000000000004ea40        0x1 /home/jam/dev/ultimate/saltynx/arc_mod_installer/../libnx_min/nx//lib/libnx_min.a(detect.o)
 *fill*         0x000000000004ea41        0x3 
 .bss.g_VersionMutex
                0x000000000004ea44        0x4 /home/jam/dev/ultimate/saltynx/arc_mod_installer/../libnx_min/nx//lib/libnx_min.a(detect.o)
 .bss.__malloc_current_mallinfo
                0x000000000004ea48       0x28 /opt/devkitpro/devkitA64/lib/gcc/aarch64-none-elf/8.3.0/../../../../aarch64-none-elf/lib/pic/libg.a(lib_a-mallocr.o)
                0x000000000004ea48                __malloc_current_mallinfo
 .bss.__malloc_max_sbrked_mem
                0x000000000004ea70        0x8 /opt/devkitpro/devkitA64/lib/gcc/aarch64-none-elf/8.3.0/../../../../aarch64-none-elf/lib/pic/libg.a(lib_a-mallocr.o)
                0x000000000004ea70                __malloc_max_sbrked_mem
 .bss.__malloc_max_total_mem
                0x000000000004ea78        0x8 /opt/devkitpro/devkitA64/lib/gcc/aarch64-none-elf/8.3.0/../../../../aarch64-none-elf/lib/pic/libg.a(lib_a-mallocr.o)
                0x000000000004ea78                __malloc_max_total_mem
 .bss.__malloc_top_pad
                0x000000000004ea80        0x8 /opt/devkitpro/devkitA64/lib/gcc/aarch64-none-elf/8.3.0/../../../../aarch64-none-elf/lib/pic/libg.a(lib_a-mallocr.o)
                0x000000000004ea80                __malloc_top_pad
 .bss.__malloc_recursive_mutex
                0x000000000004ea88        0xc /opt/devkitpro/devkitA64/lib/gcc/aarch64-none-elf/8.3.0/../../../../aarch64-none-elf/lib/pic/libg.a(lib_a-mlock.o)
 .bss.alloced.4086
                0x000000000004ea94        0x4 /opt/devkitpro/devkitA64/lib/gcc/aarch64-none-elf/8.3.0/../../../../aarch64-none-elf/lib/pic/libg.a(lib_a-setenv_r.o)
 .bss.__atexit_recursive_mutex
                0x000000000004ea98        0xc /opt/devkitpro/devkitA64/lib/gcc/aarch64-none-elf/8.3.0/../../../../aarch64-none-elf/lib/pic/libg.a(lib_a-__call_atexit.o)
                0x000000000004ea98                __atexit_recursive_mutex
 *fill*         0x000000000004eaa4        0x4 
 .bss.initial_env
                0x000000000004eaa8        0x8 /opt/devkitpro/devkitA64/lib/gcc/aarch64-none-elf/8.3.0/../../../../aarch64-none-elf/lib/pic/libg.a(lib_a-environ.o)
 .bss.__env_recursive_mutex
                0x000000000004eab0        0xc /opt/devkitpro/devkitA64/lib/gcc/aarch64-none-elf/8.3.0/../../../../aarch64-none-elf/lib/pic/libg.a(lib_a-envlock.o)
 *fill*         0x000000000004eabc        0x4 
 .bss._PathLocale
                0x000000000004eac0        0x8 /opt/devkitpro/devkitA64/lib/gcc/aarch64-none-elf/8.3.0/../../../../aarch64-none-elf/lib/pic/libg.a(lib_a-locale.o)
                0x000000000004eac0                _PathLocale
 .bss.global_locale_string
                0x000000000004eac8       0xe7 /opt/devkitpro/devkitA64/lib/gcc/aarch64-none-elf/8.3.0/../../../../aarch64-none-elf/lib/pic/libg.a(lib_a-locale.o)
 *fill*         0x000000000004ebaf        0x1 
 .bss.new_categories.4568
                0x000000000004ebb0       0xe0 /opt/devkitpro/devkitA64/lib/gcc/aarch64-none-elf/8.3.0/../../../../aarch64-none-elf/lib/pic/libg.a(lib_a-locale.o)
 .bss.saved_categories.4569
                0x000000000004ec90       0xe0 /opt/devkitpro/devkitA64/lib/gcc/aarch64-none-elf/8.3.0/../../../../aarch64-none-elf/lib/pic/libg.a(lib_a-locale.o)
 .bss.heap_start.5295
                0x000000000004ed70        0x8 /opt/devkitpro/devkitA64/lib/gcc/aarch64-none-elf/8.3.0/../../../../aarch64-none-elf/lib/pic/libsysbase.a(sbrk.o)
 .bss.fake_heap_end
                0x000000000004ed78        0x8 /opt/devkitpro/devkitA64/lib/gcc/aarch64-none-elf/8.3.0/../../../../aarch64-none-elf/lib/pic/libsysbase.a(malloc_vars.o)
                0x000000000004ed78                fake_heap_end
 .bss.fake_heap_start
                0x000000000004ed80        0x8 /opt/devkitpro/devkitA64/lib/gcc/aarch64-none-elf/8.3.0/../../../../aarch64-none-elf/lib/pic/libsysbase.a(malloc_vars.o)
                0x000000000004ed80                fake_heap_start
 .bss.temp_cwd  0x000000000004ed88      0x400 /opt/devkitpro/devkitA64/lib/gcc/aarch64-none-elf/8.3.0/../../../../aarch64-none-elf/lib/pic/libsysbase.a(chdir.o)
 *(COMMON)
 COMMON         0x000000000004f188       0x18 main.o
                0x000000000004f188                orig_ctx
                0x000000000004f190                orig_main_thread
                0x000000000004f198                orig_saved_lr
 COMMON         0x000000000004f1a0      0x348 /home/jam/dev/ultimate/saltynx/arc_mod_installer/../libnx_min/nx//lib/libnx_min.a(init.o)
                0x000000000004f1a0                __nx_exceptiondump
                0x000000000004f4e0                __stack_top
 COMMON         0x000000000004f4e8        0xc /home/jam/dev/ultimate/saltynx/arc_mod_installer/../libnx_min/nx//lib/libnx_min.a(argv.o)
                0x000000000004f4e8                __system_argv
                0x000000000004f4f0                __system_argc
                0x000000000004f4f8                . = ALIGN (0x8)
 *fill*         0x000000000004f4f4        0x4 
                0x000000000004f4f8                __tls_start = .
                0x0000000000053900                . = (. + (SIZEOF (.tdata) + SIZEOF (.tbss)))
 *fill*         0x000000000004f4f8     0x4408 
                0x0000000000053900                __tls_end = .
                0x0000000000053900                __bss_end__ = .
                0x0000000000053900                __end__ = ABSOLUTE (.)
                0x0000000000054000                . = ALIGN (0x1000)
                0x0000000000054000                __argdata__ = ABSOLUTE (.)

/DISCARD/
 *(.group .comment .note)

.stab
 *(.stab)

.stabstr
 *(.stabstr)

.stab.excl
 *(.stab.excl)

.stab.exclstr
 *(.stab.exclstr)

.stab.index
 *(.stab.index)

.stab.indexstr
 *(.stab.indexstr)

.debug
 *(.debug)

.line
 *(.line)

.debug_srcinfo
 *(.debug_srcinfo)

.debug_sfnames
 *(.debug_sfnames)

.debug_aranges
 *(.debug_aranges)

.debug_pubnames
 *(.debug_pubnames)

.debug_info
 *(.debug_info)

.debug_abbrev
 *(.debug_abbrev)

.debug_line
 *(.debug_line)

.debug_frame
 *(.debug_frame)

.debug_str
 *(.debug_str)

.debug_loc
 *(.debug_loc)

.debug_macinfo
 *(.debug_macinfo)
LOAD /opt/devkitpro/devkitA64/lib/gcc/aarch64-none-elf/8.3.0/pic/crti.o
LOAD /opt/devkitpro/devkitA64/lib/gcc/aarch64-none-elf/8.3.0/pic/crtbegin.o
LOAD main.o
LOAD /home/jam/dev/ultimate/saltynx/arc_mod_installer/../libnx_min/nx//lib/libnx_min.a
START GROUP
LOAD /opt/devkitpro/devkitA64/lib/gcc/aarch64-none-elf/8.3.0/pic/libgcc.a
LOAD /opt/devkitpro/devkitA64/lib/gcc/aarch64-none-elf/8.3.0/../../../../aarch64-none-elf/lib/pic/libg.a
LOAD /opt/devkitpro/devkitA64/lib/gcc/aarch64-none-elf/8.3.0/../../../../aarch64-none-elf/lib/pic/libc.a
LOAD /opt/devkitpro/devkitA64/lib/gcc/aarch64-none-elf/8.3.0/../../../../aarch64-none-elf/lib/pic/libsysbase.a
END GROUP
LOAD /opt/devkitpro/devkitA64/lib/gcc/aarch64-none-elf/8.3.0/pic/crtend.o
LOAD /opt/devkitpro/devkitA64/lib/gcc/aarch64-none-elf/8.3.0/pic/crtn.o
OUTPUT(/home/jam/dev/ultimate/saltynx/arc_mod_installer/arc_mod_installer.elf elf64-littleaarch64)
